(dp0
S'loan'
p1
(dp2
S'<263212.5'
p3
(dp4
S'marital'
p5
(dp6
S'k'
p7
(dp8
S'gender'
p9
(dp10
S'm'
p11
(dp12
S'elevel'
p13
(dp14
S'>3.0'
p15
(dp16
S'age'
p17
(dp18
S'<59.5'
p19
(dp20
g13
(dp21
S'>4.0'
p22
I0
sS'<4.0'
p23
(dp24
g17
(dp25
S'>40.5'
p26
(dp27
S'salary'
p28
(dp29
S'<107867.0'
p30
(dp31
S'car'
p32
(dp33
S'<18.5'
p34
I1
sS'>18.5'
p35
I0
sssS'>107867.0'
p36
I0
sssS'<40.5'
p37
(dp38
S'zipcode'
p39
(dp40
S'<0.0'
p41
(dp42
g32
(dp43
S'<14.0'
p44
I1
sS'>14.0'
p45
I0
sssS'>0.0'
p46
(dp47
S'creditscore'
p48
(dp49
S'<698.5'
p50
I0
sS'>698.5'
p51
(dp52
S'commission'
p53
(dp54
S'<0.0'
p55
I1
sS'>0.0'
p56
(dp57
g39
(dp58
S'>9.0'
p59
I1
sS'<9.0'
p60
I0
sssssssssssssS'>59.5'
p61
(dp62
g39
(dp63
S'>9.0'
p64
I0
sS'<9.0'
p65
I1
sssssS'<3.0'
p66
(dp67
g13
(dp68
S'>1.0'
p69
(dp70
g17
(dp71
S'>39.5'
p72
(dp73
g13
(dp74
S'<1.5'
p75
(dp76
g17
(dp77
S'>59.0'
p78
(dp79
g39
(dp80
S'<0.0'
p81
I1
sS'>0.0'
p82
(dp83
g1
(dp84
S'>27613.5'
p85
(dp86
S'hyears'
p87
(dp88
S'<8.0'
p89
(dp90
g53
(dp91
S'<32014.5'
p92
(dp93
g87
(dp94
S'>6.0'
p95
I1
sS'<6.0'
p96
I0
sssS'>32014.5'
p97
I1
sssS'>8.0'
p98
I0
sssS'<27613.5'
p99
I1
sssssS'<59.0'
p100
(dp101
g48
(dp102
S'<729.5'
p103
I1
sS'>729.5'
p104
(dp105
g28
(dp106
S'<88374.5'
p107
I1
sS'>88374.5'
p108
(dp109
g17
(dp110
S'<43.0'
p111
I1
sS'>43.0'
p112
I0
sssssssssS'>1.5'
p113
(dp114
g13
(dp115
S'<2.0'
p116
I1
sS'>2.0'
p117
(dp118
g32
(dp119
S'>18.0'
p120
(dp121
g28
(dp122
S'>122224.0'
p123
I0
sS'<122224.0'
p124
(dp125
g53
(dp126
S'>31170.5'
p127
(dp128
g28
(dp129
S'>36126.5'
p130
I0
sS'<36126.5'
p131
I1
sssS'<31170.5'
p132
I1
sssssS'<18.0'
p133
(dp134
g28
(dp135
S'>24554.0'
p136
(dp137
g87
(dp138
S'>27.0'
p139
(dp140
g1
(dp141
S'<139298.0'
p142
(dp143
g13
(dp144
S'>3.0'
p145
(dp146
g32
(dp147
S'<11.0'
p148
I0
sS'>11.0'
p149
I1
sssS'<3.0'
p150
(dp151
g28
(dp152
S'<139306.0'
p153
I1
sS'>139306.0'
p154
I0
sssssS'>139298.0'
p155
I1
sssS'<27.0'
p156
(dp157
g28
(dp158
S'>148555.0'
p159
I0
sS'<148555.0'
p160
(dp161
g53
(dp162
S'<0.0'
p163
(dp164
g28
(dp165
S'<103746.5'
p166
I1
sS'>103746.5'
p167
I0
sssS'>0.0'
p168
I1
sssssssS'<24554.0'
p169
(dp170
g39
(dp171
S'>2.5'
p172
(dp173
g48
(dp174
S'>401.5'
p175
I1
sS'<401.5'
p176
I0
sssS'<2.5'
p177
I0
sssssssssssS'<39.5'
p178
(dp179
g13
(dp180
S'<2.0'
p181
(dp182
g48
(dp183
S'>819.5'
p184
I0
sS'<819.5'
p185
(dp186
g17
(dp187
S'<39.0'
p188
(dp189
g53
(dp190
S'<0.0'
p191
(dp192
g48
(dp193
S'<421.5'
p194
I0
sS'>421.5'
p195
I1
sssS'>0.0'
p196
I1
sssS'>39.0'
p197
I0
sssssS'>2.0'
p198
(dp199
g32
(dp200
S'<14.0'
p201
(dp202
g53
(dp203
S'<43520.0'
p204
(dp205
g1
(dp206
S'<213206.0'
p207
(dp208
g17
(dp209
S'>37.0'
p210
(dp211
g48
(dp212
S'<699.5'
p213
(dp214
g87
(dp215
S'>26.0'
p216
I1
sS'<26.0'
p217
I0
sssS'>699.5'
p218
I1
sssS'<37.0'
p219
(dp220
g48
(dp221
S'>382.0'
p222
I0
sS'<382.0'
p223
(dp224
g53
(dp225
S'<0.0'
p226
I0
sS'>0.0'
p227
I1
sssssssS'>213206.0'
p228
I1
sssS'>43520.0'
p229
I0
sssS'>14.0'
p230
I0
sssssssS'<1.0'
p231
(dp232
g17
(dp233
S'>38.0'
p234
(dp235
g28
(dp236
S'<148265.0'
p237
(dp238
g87
(dp239
S'>30.0'
p240
I1
sS'<30.0'
p241
(dp242
g53
(dp243
S'<47337.5'
p244
I0
sS'>47337.5'
p245
(dp246
g53
(dp247
S'<49157.5'
p248
I1
sS'>49157.5'
p249
(dp250
g87
(dp251
S'>27.5'
p252
I1
sS'<27.5'
p253
I0
sssssssssS'>148265.0'
p254
I1
sssS'<38.0'
p255
(dp256
g17
(dp257
S'>27.0'
p258
I1
sS'<27.0'
p259
(dp260
g39
(dp261
S'<5.0'
p262
I1
sS'>5.0'
p263
(dp264
g87
(dp265
S'>18.0'
p266
I1
sS'<18.0'
p267
I0
sssssssssssssS'f'
p268
(dp269
g1
(dp270
S'>188890.5'
p271
(dp272
g28
(dp273
S'>104766.5'
p274
(dp275
g53
(dp276
S'<0.0'
p277
(dp278
g1
(dp279
S'<209684.0'
p280
(dp281
g13
(dp282
S'<2.0'
p283
I1
sS'>2.0'
p284
(dp285
g53
(dp286
S'<0.0'
p287
(dp288
S'hvalue'
p289
(dp290
S'>172324.0'
p291
(dp292
g17
(dp293
S'<25.5'
p294
I1
sS'>25.5'
p295
I0
sssS'<172324.0'
p296
I1
sssS'>0.0'
p297
I1
sssssS'>209684.0'
p298
I1
sssS'>0.0'
p299
I0
sssS'<104766.5'
p300
(dp301
g53
(dp302
S'<50204.0'
p303
(dp304
g28
(dp305
S'<91038.0'
p306
(dp307
g53
(dp308
S'<27172.0'
p309
(dp310
g48
(dp311
S'>832.5'
p312
(dp313
g28
(dp314
S'<57168.5'
p315
I0
sS'>57168.5'
p316
I1
sssS'<832.5'
p317
I0
sssS'>27172.0'
p318
(dp319
g28
(dp320
S'>52403.0'
p321
(dp322
g1
(dp323
S'<223014.0'
p324
I1
sS'>223014.0'
p325
(dp326
g39
(dp327
S'<5.0'
p328
(dp329
g13
(dp330
S'<2.0'
p331
I0
sS'>2.0'
p332
I1
sssS'>5.0'
p333
I0
sssssS'<52403.0'
p334
(dp335
g17
(dp336
S'>77.5'
p337
I1
sS'<77.5'
p338
I0
sssssssS'>91038.0'
p339
(dp340
g1
(dp341
S'<215173.0'
p342
I1
sS'>215173.0'
p343
(dp344
g13
(dp345
S'>1.0'
p346
(dp347
g17
(dp348
S'>52.5'
p349
I1
sS'<52.5'
p350
(dp351
g39
(dp352
S'>2.5'
p353
I0
sS'<2.5'
p354
(dp355
g28
(dp356
S'>103873.5'
p357
I0
sS'<103873.5'
p358
I1
sssssssS'<1.0'
p359
I0
sssssssS'>50204.0'
p360
(dp361
g28
(dp362
S'>34851.5'
p363
(dp364
g32
(dp365
S'<16.0'
p366
I1
sS'>16.0'
p367
(dp368
g87
(dp369
S'<16.0'
p370
I1
sS'>16.0'
p371
I0
sssssS'<34851.5'
p372
(dp373
g48
(dp374
S'>753.5'
p375
I1
sS'<753.5'
p376
I0
sssssssssS'<188890.5'
p377
(dp378
g28
(dp379
S'>36589.5'
p380
(dp381
g32
(dp382
S'<7.0'
p383
(dp384
g1
(dp385
S'>14067.5'
p386
(dp387
g32
(dp388
S'<2.0'
p389
(dp390
g32
(dp391
S'<2.0'
p392
(dp393
g28
(dp394
S'>136230.5'
p395
(dp396
g28
(dp397
S'>141203.0'
p398
I1
sS'<141203.0'
p399
I0
sssS'<136230.5'
p400
I1
sssS'>2.0'
p401
I0
sssS'>2.0'
p402
I1
sssS'<14067.5'
p403
(dp404
g39
(dp405
S'>7.5'
p406
I0
sS'<7.5'
p407
I1
sssssS'>7.0'
p408
(dp409
g1
(dp410
S'>29078.0'
p411
(dp412
g17
(dp413
S'<25.0'
p414
I1
sS'>25.0'
p415
(dp416
g17
(dp417
S'<74.5'
p418
(dp419
g39
(dp420
S'<2.0'
p421
(dp422
g48
(dp423
S'<310.5'
p424
I0
sS'>310.5'
p425
(dp426
g87
(dp427
S'<29.5'
p428
(dp429
g39
(dp430
S'<0.0'
p431
I0
sS'>0.0'
p432
I1
sssS'>29.5'
p433
I0
sssssS'>2.0'
p434
(dp435
g289
(dp436
S'>484849.0'
p437
(dp438
g87
(dp439
S'<20.0'
p440
(dp441
g32
(dp442
S'>19.5'
p443
I0
sS'<19.5'
p444
(dp445
g87
(dp446
S'>9.0'
p447
(dp448
g32
(dp449
S'<11.0'
p450
(dp451
g13
(dp452
S'>3.0'
p453
(dp454
g13
(dp455
S'>4.0'
p456
I1
sS'<4.0'
p457
I0
sssS'<3.0'
p458
(dp459
g32
(dp460
S'<9.5'
p461
I1
sS'>9.5'
p462
I0
sssssS'>11.0'
p463
(dp464
g17
(dp465
S'>73.0'
p466
I0
sS'<73.0'
p467
I1
sssssS'<9.0'
p468
I1
sssssS'>20.0'
p469
I1
sssS'<484849.0'
p470
(dp471
g289
(dp472
S'>427268.5'
p473
(dp474
g17
(dp475
S'<53.5'
p476
(dp477
g53
(dp478
S'>43071.5'
p479
(dp480
g17
(dp481
S'>32.0'
p482
I1
sS'<32.0'
p483
I0
sssS'<43071.5'
p484
(dp485
g87
(dp486
S'<29.0'
p487
I0
sS'>29.0'
p488
I1
sssssS'>53.5'
p489
I1
sssS'<427268.5'
p490
(dp491
g17
(dp492
S'<60.5'
p493
(dp494
g32
(dp495
S'<20.0'
p496
(dp497
g53
(dp498
S'>14291.0'
p499
(dp500
g53
(dp501
S'<25547.5'
p502
I0
sS'>25547.5'
p503
I1
sssS'<14291.0'
p504
I1
sssS'>20.0'
p505
(dp506
g28
(dp507
S'<112590.0'
p508
I0
sS'>112590.0'
p509
I1
sssssS'>60.5'
p510
(dp511
g1
(dp512
S'<119472.0'
p513
(dp514
g289
(dp515
S'<183756.0'
p516
(dp517
g32
(dp518
S'>12.0'
p519
I1
sS'<12.0'
p520
I0
sssS'>183756.0'
p521
I0
sssS'>119472.0'
p522
(dp523
g48
(dp524
S'<333.5'
p525
I0
sS'>333.5'
p526
I1
sssssssssssssS'>74.5'
p527
I1
sssssS'<29078.0'
p528
I1
sssssS'<36589.5'
p529
(dp530
g53
(dp531
S'<48670.0'
p532
(dp533
g1
(dp534
S'>107457.0'
p535
(dp536
g32
(dp537
S'>19.5'
p538
I1
sS'<19.5'
p539
I0
sssS'<107457.0'
p540
(dp541
g53
(dp542
S'<25883.0'
p543
(dp544
g13
(dp545
S'<0.0'
p546
I1
sS'>0.0'
p547
I0
sssS'>25883.0'
p548
(dp549
g39
(dp550
S'>3.0'
p551
(dp552
g53
(dp553
S'>30743.5'
p554
(dp555
g28
(dp556
S'>28491.5'
p557
I0
sS'<28491.5'
p558
(dp559
g28
(dp560
S'>24850.5'
p561
I1
sS'<24850.5'
p562
I0
sssssS'<30743.5'
p563
I1
sssS'<3.0'
p564
I1
sssssssS'>48670.0'
p565
(dp566
g13
(dp567
S'<0.0'
p568
(dp569
g32
(dp570
S'>10.0'
p571
I1
sS'<10.0'
p572
I0
sssS'>0.0'
p573
I1
sssssssssssg11
(dp574
g28
(dp575
S'<125001.0'
p576
(dp577
g17
(dp578
S'<60.0'
p579
(dp580
g28
(dp581
S'>50360.5'
p582
(dp583
g53
(dp584
S'<0.0'
p585
(dp586
g28
(dp587
S'>69218.0'
p588
(dp589
g39
(dp590
S'>9.0'
p591
I0
sS'<9.0'
p592
(dp593
g1
(dp594
S'>207050.0'
p595
I1
sS'<207050.0'
p596
(dp597
g48
(dp598
S'<722.0'
p599
(dp600
g13
(dp601
S'>1.0'
p602
(dp603
g17
(dp604
S'>41.5'
p605
(dp606
g53
(dp607
S'<0.0'
p608
I0
sS'>0.0'
p609
(dp610
g39
(dp611
S'>4.0'
p612
I1
sS'<4.0'
p613
(dp614
g53
(dp615
S'<0.0'
p616
(dp617
g13
(dp618
S'<3.5'
p619
I1
sS'>3.5'
p620
(dp621
g87
(dp622
S'<8.0'
p623
I0
sS'>8.0'
p624
I1
sssssS'>0.0'
p625
I0
sssssssS'<41.5'
p626
I1
sssS'<1.0'
p627
(dp628
g1
(dp629
S'<113715.0'
p630
I1
sS'>113715.0'
p631
(dp632
g32
(dp633
S'>17.0'
p634
I0
sS'<17.0'
p635
(dp636
g289
(dp637
S'>325491.0'
p638
(dp639
g28
(dp640
S'<75973.5'
p641
I0
sS'>75973.5'
p642
(dp643
g48
(dp644
S'<707.0'
p645
I1
sS'>707.0'
p646
I0
sssssS'<325491.0'
p647
I0
sssssssssS'>722.0'
p648
I1
sssssssS'<69218.0'
p649
(dp650
g28
(dp651
S'<57731.0'
p652
I1
sS'>57731.0'
p653
I0
sssssS'>0.0'
p654
(dp655
g17
(dp656
S'>39.5'
p657
(dp658
g28
(dp659
S'<87520.5'
p660
(dp661
g9
(dp662
g11
(dp663
g53
(dp664
S'<29446.0'
p665
(dp666
g87
(dp667
S'<21.0'
p668
I0
sS'>21.0'
p669
I1
sssS'>29446.0'
p670
I0
sssg268
(dp671
g13
(dp672
S'>4.0'
p673
I0
sS'<4.0'
p674
(dp675
g53
(dp676
S'>66184.5'
p677
I0
sS'<66184.5'
p678
(dp679
g53
(dp680
S'<10914.5'
p681
I0
sS'>10914.5'
p682
I1
sssssssssS'>87520.5'
p683
(dp684
g32
(dp685
S'>1.0'
p686
(dp687
g13
(dp688
S'<2.0'
p689
I1
sS'>2.0'
p690
(dp691
g53
(dp692
S'<0.0'
p693
I0
sS'>0.0'
p694
(dp695
g32
(dp696
S'<9.5'
p697
(dp698
g28
(dp699
S'<122556.5'
p700
(dp701
g17
(dp702
S'<46.5'
p703
(dp704
g28
(dp705
S'<106021.0'
p706
I1
sS'>106021.0'
p707
I0
sssS'>46.5'
p708
I1
sssS'>122556.5'
p709
I0
sssS'>9.5'
p710
I1
sssssssS'<1.0'
p711
I0
sssssS'<39.5'
p712
(dp713
g28
(dp714
S'>74748.0'
p715
(dp716
g53
(dp717
S'<0.0'
p718
(dp719
g28
(dp720
S'<105138.0'
p721
I0
sS'>105138.0'
p722
(dp723
g32
(dp724
S'>16.5'
p725
I0
sS'<16.5'
p726
(dp727
g53
(dp728
S'<0.0'
p729
(dp730
g13
(dp731
S'<3.5'
p732
I0
sS'>3.5'
p733
I1
sssS'>0.0'
p734
(dp735
g17
(dp736
S'>23.5'
p737
I1
sS'<23.5'
p738
I0
sssssssssS'>0.0'
p739
(dp740
g32
(dp741
S'<20.0'
p742
I0
sS'>20.0'
p743
I1
sssssS'<74748.0'
p744
(dp745
g9
(dp746
g11
(dp747
g48
(dp748
S'>309.5'
p749
I1
sS'<309.5'
p750
I0
sssg268
(dp751
g53
(dp752
S'<39288.0'
p753
(dp754
g28
(dp755
S'<63752.0'
p756
I1
sS'>63752.0'
p757
(dp758
g53
(dp759
S'>30558.0'
p760
I0
sS'<30558.0'
p761
(dp762
g39
(dp763
S'<4.5'
p764
(dp765
g53
(dp766
S'<16008.5'
p767
I1
sS'>16008.5'
p768
I0
sssS'>4.5'
p769
I1
sssssssS'>39288.0'
p770
I0
sssssssssssS'<50360.5'
p771
(dp772
g9
(dp773
g11
(dp774
g13
(dp775
S'>4.0'
p776
(dp777
g17
(dp778
S'<39.0'
p779
(dp780
g53
(dp781
S'<32836.5'
p782
I1
sS'>32836.5'
p783
I0
sssS'>39.0'
p784
I1
sssS'<4.0'
p785
(dp786
g32
(dp787
S'<16.0'
p788
(dp789
g13
(dp790
S'<0.0'
p791
(dp792
g28
(dp793
S'<39651.0'
p794
I0
sS'>39651.0'
p795
I1
sssS'>0.0'
p796
(dp797
g28
(dp798
S'<23458.0'
p799
(dp800
g28
(dp801
S'<22546.0'
p802
I0
sS'>22546.0'
p803
I1
sssS'>23458.0'
p804
I0
sssssS'>16.0'
p805
(dp806
g32
(dp807
S'<16.0'
p808
(dp809
g39
(dp810
S'>5.5'
p811
I0
sS'<5.5'
p812
I1
sssS'>16.0'
p813
(dp814
g13
(dp815
S'>4.0'
p816
(dp817
g28
(dp818
S'<29972.0'
p819
I1
sS'>29972.0'
p820
I0
sssS'<4.0'
p821
I0
sssssssssg268
(dp822
g53
(dp823
S'>24967.5'
p824
(dp825
g13
(dp826
S'>4.0'
p827
(dp828
g28
(dp829
S'<41292.5'
p830
(dp831
g32
(dp832
S'<8.0'
p833
(dp834
g28
(dp835
S'>28837.5'
p836
I0
sS'<28837.5'
p837
(dp838
g53
(dp839
S'>50826.5'
p840
I1
sS'<50826.5'
p841
I0
sssssS'>8.0'
p842
I1
sssS'>41292.5'
p843
I0
sssS'<4.0'
p844
(dp845
g17
(dp846
S'>59.0'
p847
I0
sS'<59.0'
p848
(dp849
g1
(dp850
S'>63151.0'
p851
(dp852
g48
(dp853
S'<822.5'
p854
(dp855
g1
(dp856
S'>239760.5'
p857
(dp858
g53
(dp859
S'>39306.5'
p860
I1
sS'<39306.5'
p861
I0
sssS'<239760.5'
p862
I1
sssS'>822.5'
p863
I0
sssS'<63151.0'
p864
(dp865
g53
(dp866
S'<37215.0'
p867
(dp868
g87
(dp869
S'<13.0'
p870
I1
sS'>13.0'
p871
I0
sssS'>37215.0'
p872
(dp873
g13
(dp874
S'>1.0'
p875
(dp876
g28
(dp877
S'>41266.5'
p878
I1
sS'<41266.5'
p879
I0
sssS'<1.0'
p880
I1
sssssssssssS'<24967.5'
p881
(dp882
g48
(dp883
S'<574.0'
p884
I0
sS'>574.0'
p885
(dp886
g17
(dp887
S'<58.0'
p888
(dp889
g17
(dp890
S'<35.5'
p891
(dp892
g53
(dp893
S'<19798.0'
p894
I1
sS'>19798.0'
p895
I0
sssS'>35.5'
p896
I0
sssS'>58.0'
p897
I1
sssssssssssS'>60.0'
p898
(dp899
g28
(dp900
S'>75162.0'
p901
(dp902
g87
(dp903
S'>15.0'
p904
(dp905
g48
(dp906
S'>687.0'
p907
I0
sS'<687.0'
p908
(dp909
g28
(dp910
S'<109771.5'
p911
(dp912
g28
(dp913
S'>108977.5'
p914
I1
sS'<108977.5'
p915
(dp916
g13
(dp917
S'>1.0'
p918
(dp919
g289
(dp920
S'<0.0'
p921
I1
sS'>0.0'
p922
(dp923
g87
(dp924
S'>18.0'
p925
(dp926
g48
(dp927
S'>679.5'
p928
I1
sS'<679.5'
p929
I0
sssS'<18.0'
p930
(dp931
g17
(dp932
S'>74.0'
p933
I0
sS'<74.0'
p934
(dp935
g32
(dp936
S'<6.5'
p937
I0
sS'>6.5'
p938
I1
sssssssssS'<1.0'
p939
I0
sssssS'>109771.5'
p940
I0
sssssS'<15.0'
p941
(dp942
g48
(dp943
S'<742.5'
p944
I0
sS'>742.5'
p945
(dp946
g53
(dp947
S'<0.0'
p948
I1
sS'>0.0'
p949
I0
sssssssS'<75162.0'
p950
(dp951
g9
(dp952
g11
(dp953
g28
(dp954
S'>25940.5'
p955
(dp956
g289
(dp957
S'>1082196.5'
p958
(dp959
g48
(dp960
S'<622.0'
p961
I0
sS'>622.0'
p962
I1
sssS'<1082196.5'
p963
I1
sssS'<25940.5'
p964
I0
sssg268
(dp965
g53
(dp966
S'>44786.5'
p967
(dp968
g17
(dp969
S'>63.5'
p970
I0
sS'<63.5'
p971
(dp972
g28
(dp973
S'>61218.0'
p974
I1
sS'<61218.0'
p975
I0
sssssS'<44786.5'
p976
(dp977
g28
(dp978
S'<34512.5'
p979
I1
sS'>34512.5'
p980
(dp981
g53
(dp982
S'<23418.5'
p983
(dp984
g28
(dp985
S'<58675.5'
p986
I1
sS'>58675.5'
p987
(dp988
g17
(dp989
S'>72.5'
p990
I1
sS'<72.5'
p991
I0
sssssS'>23418.5'
p992
(dp993
g28
(dp994
S'<39392.5'
p995
(dp996
g53
(dp997
S'>36497.0'
p998
I0
sS'<36497.0'
p999
I1
sssS'>39392.5'
p1000
I0
sssssssssssssssS'>125001.0'
p1001
(dp1002
g28
(dp1003
S'>144231.5'
p1004
(dp1005
g28
(dp1006
S'<147540.5'
p1007
(dp1008
g87
(dp1009
S'<7.0'
p1010
(dp1011
g28
(dp1012
S'<147540.0'
p1013
(dp1014
g1
(dp1015
S'<58591.5'
p1016
(dp1017
g53
(dp1018
S'>25697.5'
p1019
I0
sS'<25697.5'
p1020
I1
sssS'>58591.5'
p1021
I0
sssS'>147540.0'
p1022
I1
sssS'>7.0'
p1023
(dp1024
g28
(dp1025
S'<147540.0'
p1026
(dp1027
g28
(dp1028
S'<144365.5'
p1029
I1
sS'>144365.5'
p1030
I0
sssS'>147540.0'
p1031
(dp1032
g1
(dp1033
S'>205535.5'
p1034
I1
sS'<205535.5'
p1035
(dp1036
g53
(dp1037
S'<0.0'
p1038
I1
sS'>0.0'
p1039
I0
sssssssssS'>147540.5'
p1040
I0
sssS'<144231.5'
p1041
(dp1042
g1
(dp1043
S'>73784.0'
p1044
I0
sS'<73784.0'
p1045
(dp1046
g53
(dp1047
S'<0.0'
p1048
(dp1049
g39
(dp1050
S'<8.0'
p1051
I0
sS'>8.0'
p1052
(dp1053
g53
(dp1054
S'<0.0'
p1055
I1
sS'>0.0'
p1056
I0
sssssS'>0.0'
p1057
I1
sssssssssS's'
p1058
(dp1059
g9
(dp1060
g11
(dp1061
g17
(dp1062
S'<59.5'
p1063
(dp1064
g17
(dp1065
S'>39.5'
p1066
(dp1067
g289
(dp1068
S'>408509.0'
p1069
(dp1070
g17
(dp1071
S'>59.0'
p1072
I1
sS'<59.0'
p1073
(dp1074
g48
(dp1075
S'<354.5'
p1076
(dp1077
g28
(dp1078
S'>118239.5'
p1079
I1
sS'<118239.5'
p1080
I0
sssS'>354.5'
p1081
I0
sssssS'<408509.0'
p1082
(dp1083
g17
(dp1084
S'>55.5'
p1085
I0
sS'<55.5'
p1086
(dp1087
g87
(dp1088
S'<3.5'
p1089
(dp1090
g28
(dp1091
S'>138181.0'
p1092
I0
sS'<138181.0'
p1093
I1
sssS'>3.5'
p1094
(dp1095
g13
(dp1096
S'>1.0'
p1097
(dp1098
g48
(dp1099
S'>469.5'
p1100
(dp1101
g13
(dp1102
S'<2.0'
p1103
I1
sS'>2.0'
p1104
(dp1105
g28
(dp1106
S'>146971.5'
p1107
I1
sS'<146971.5'
p1108
(dp1109
g39
(dp1110
S'<6.5'
p1111
(dp1112
g13
(dp1113
S'>4.0'
p1114
I1
sS'<4.0'
p1115
(dp1116
g87
(dp1117
S'<5.0'
p1118
I1
sS'>5.0'
p1119
(dp1120
g13
(dp1121
S'>4.0'
p1122
I1
sS'<4.0'
p1123
I0
sssssssS'>6.5'
p1124
I1
sssssssS'<469.5'
p1125
I0
sssS'<1.0'
p1126
I0
sssssssssS'<39.5'
p1127
(dp1128
g48
(dp1129
S'>653.5'
p1130
(dp1131
g17
(dp1132
S'<25.0'
p1133
I1
sS'>25.0'
p1134
(dp1135
g87
(dp1136
S'>6.0'
p1137
(dp1138
g48
(dp1139
S'>692.0'
p1140
(dp1141
g17
(dp1142
S'>27.0'
p1143
(dp1144
g32
(dp1145
S'<1.5'
p1146
I0
sS'>1.5'
p1147
(dp1148
g32
(dp1149
S'<19.0'
p1150
I1
sS'>19.0'
p1151
(dp1152
g28
(dp1153
S'>48847.0'
p1154
I0
sS'<48847.0'
p1155
I1
sssssssS'<27.0'
p1156
(dp1157
g13
(dp1158
S'>2.5'
p1159
I1
sS'<2.5'
p1160
(dp1161
g28
(dp1162
S'<60031.0'
p1163
I1
sS'>60031.0'
p1164
I0
sssssssS'<692.0'
p1165
(dp1166
g28
(dp1167
S'<41840.0'
p1168
I1
sS'>41840.0'
p1169
I0
sssssS'<6.0'
p1170
I1
sssssS'<653.5'
p1171
(dp1172
g289
(dp1173
S'>374023.0'
p1174
(dp1175
g289
(dp1176
S'>385536.5'
p1177
(dp1178
g32
(dp1179
S'<13.0'
p1180
I1
sS'>13.0'
p1181
(dp1182
g53
(dp1183
S'<40959.0'
p1184
(dp1185
g53
(dp1186
S'<0.0'
p1187
I0
sS'>0.0'
p1188
(dp1189
g1
(dp1190
S'<10786.5'
p1191
(dp1192
g28
(dp1193
S'>110780.0'
p1194
I0
sS'<110780.0'
p1195
I1
sssS'>10786.5'
p1196
I1
sssssS'>40959.0'
p1197
(dp1198
g28
(dp1199
S'>41157.0'
p1200
I0
sS'<41157.0'
p1201
I1
sssssssS'<385536.5'
p1202
I0
sssS'<374023.0'
p1203
I1
sssssssS'>59.5'
p1204
(dp1205
g289
(dp1206
S'<884879.5'
p1207
(dp1208
g17
(dp1209
S'<75.0'
p1210
I1
sS'>75.0'
p1211
(dp1212
g53
(dp1213
S'<0.0'
p1214
I0
sS'>0.0'
p1215
(dp1216
g17
(dp1217
S'>79.0'
p1218
(dp1219
g17
(dp1220
S'>79.0'
p1221
I1
sS'<79.0'
p1222
I0
sssS'<79.0'
p1223
I1
sssssssS'>884879.5'
p1224
(dp1225
g39
(dp1226
S'<8.0'
p1227
(dp1228
g28
(dp1229
S'<88877.0'
p1230
I1
sS'>88877.0'
p1231
(dp1232
g13
(dp1233
S'>4.0'
p1234
I1
sS'<4.0'
p1235
I0
sssssS'>8.0'
p1236
I1
sssssssg268
(dp1237
g1
(dp1238
S'<99246.5'
p1239
(dp1240
g48
(dp1241
S'<816.0'
p1242
(dp1243
g48
(dp1244
S'>357.5'
p1245
(dp1246
g48
(dp1247
S'>548.0'
p1248
(dp1249
g28
(dp1250
S'>21732.0'
p1251
(dp1252
g1
(dp1253
S'>61884.5'
p1254
(dp1255
g13
(dp1256
S'<0.0'
p1257
I1
sS'>0.0'
p1258
(dp1259
g1
(dp1260
S'>61904.5'
p1261
(dp1262
g48
(dp1263
S'<610.5'
p1264
(dp1265
g28
(dp1266
S'<100742.5'
p1267
(dp1268
g39
(dp1269
S'>6.0'
p1270
I0
sS'<6.0'
p1271
I1
sssS'>100742.5'
p1272
I0
sssS'>610.5'
p1273
I0
sssS'<61904.5'
p1274
I1
sssssS'<61884.5'
p1275
I0
sssS'<21732.0'
p1276
I1
sssS'<548.0'
p1277
I0
sssS'<357.5'
p1278
(dp1279
g17
(dp1280
S'<29.0'
p1281
(dp1282
g53
(dp1283
S'<0.0'
p1284
I0
sS'>0.0'
p1285
I1
sssS'>29.0'
p1286
(dp1287
g13
(dp1288
S'>4.0'
p1289
(dp1290
g289
(dp1291
S'<488254.0'
p1292
I1
sS'>488254.0'
p1293
I0
sssS'<4.0'
p1294
(dp1295
g28
(dp1296
S'<50589.0'
p1297
(dp1298
g28
(dp1299
S'>47294.5'
p1300
I1
sS'<47294.5'
p1301
I0
sssS'>50589.0'
p1302
I0
sssssssssS'>816.0'
p1303
(dp1304
g13
(dp1305
S'>0.5'
p1306
(dp1307
g17
(dp1308
S'>44.5'
p1309
I0
sS'<44.5'
p1310
(dp1311
g17
(dp1312
S'>38.0'
p1313
I1
sS'<38.0'
p1314
(dp1315
g39
(dp1316
S'<8.0'
p1317
I0
sS'>8.0'
p1318
I1
sssssssS'<0.5'
p1319
I1
sssssS'>99246.5'
p1320
(dp1321
g53
(dp1322
S'>5034.0'
p1323
(dp1324
g17
(dp1325
S'>39.5'
p1326
(dp1327
g28
(dp1328
S'>25423.5'
p1329
(dp1330
g53
(dp1331
S'>74188.0'
p1332
I1
sS'<74188.0'
p1333
(dp1334
g48
(dp1335
S'<346.5'
p1336
(dp1337
g17
(dp1338
S'<60.5'
p1339
I0
sS'>60.5'
p1340
(dp1341
g28
(dp1342
S'>67451.0'
p1343
I0
sS'<67451.0'
p1344
I1
sssssS'>346.5'
p1345
I0
sssssS'<25423.5'
p1346
(dp1347
g53
(dp1348
S'<18630.0'
p1349
I0
sS'>18630.0'
p1350
I1
sssssS'<39.5'
p1351
(dp1352
g1
(dp1353
S'<227786.5'
p1354
(dp1355
g28
(dp1356
S'<58590.0'
p1357
(dp1358
g53
(dp1359
S'<60524.5'
p1360
(dp1361
g13
(dp1362
S'>1.0'
p1363
I0
sS'<1.0'
p1364
(dp1365
g1
(dp1366
S'>163792.0'
p1367
I0
sS'<163792.0'
p1368
(dp1369
g28
(dp1370
S'>36400.5'
p1371
I1
sS'<36400.5'
p1372
I0
sssssssS'>60524.5'
p1373
(dp1374
g13
(dp1375
S'>3.0'
p1376
I0
sS'<3.0'
p1377
(dp1378
g1
(dp1379
S'>195890.5'
p1380
I1
sS'<195890.5'
p1381
(dp1382
g28
(dp1383
S'<49761.5'
p1384
I0
sS'>49761.5'
p1385
I1
sssssssssS'>58590.0'
p1386
(dp1387
g53
(dp1388
S'>64994.5'
p1389
(dp1390
g28
(dp1391
S'<67272.5'
p1392
I1
sS'>67272.5'
p1393
I0
sssS'<64994.5'
p1394
I1
sssssS'>227786.5'
p1395
I1
sssssS'<5034.0'
p1396
(dp1397
g17
(dp1398
S'>59.0'
p1399
(dp1400
g1
(dp1401
S'<203386.0'
p1402
I1
sS'>203386.0'
p1403
(dp1404
g28
(dp1405
S'<70123.0'
p1406
I0
sS'>70123.0'
p1407
(dp1408
g13
(dp1409
S'>4.0'
p1410
I0
sS'<4.0'
p1411
(dp1412
g53
(dp1413
S'<0.0'
p1414
(dp1415
g53
(dp1416
S'<0.0'
p1417
I1
sS'>0.0'
p1418
I0
sssS'>0.0'
p1419
I1
sssssssssS'<59.0'
p1420
(dp1421
g1
(dp1422
S'>200222.0'
p1423
(dp1424
g28
(dp1425
S'<125863.5'
p1426
(dp1427
g48
(dp1428
S'<825.5'
p1429
I1
sS'>825.5'
p1430
(dp1431
g28
(dp1432
S'>104203.5'
p1433
I0
sS'<104203.5'
p1434
I1
sssssS'>125863.5'
p1435
(dp1436
g17
(dp1437
S'<38.5'
p1438
I1
sS'>38.5'
p1439
(dp1440
g13
(dp1441
S'<1.5'
p1442
I0
sS'>1.5'
p1443
(dp1444
g32
(dp1445
S'<13.0'
p1446
I1
sS'>13.0'
p1447
I0
sssssssssS'<200222.0'
p1448
(dp1449
g28
(dp1450
S'>99495.0'
p1451
(dp1452
g39
(dp1453
S'>9.0'
p1454
I1
sS'<9.0'
p1455
(dp1456
g48
(dp1457
S'<822.5'
p1458
I0
sS'>822.5'
p1459
(dp1460
g53
(dp1461
S'<0.0'
p1462
I1
sS'>0.0'
p1463
I0
sssssssS'<99495.0'
p1464
(dp1465
g17
(dp1466
S'>40.0'
p1467
I0
sS'<40.0'
p1468
I1
sssssssssssssssS'd'
p1469
(dp1470
g9
(dp1471
g11
(dp1472
g28
(dp1473
S'<99618.0'
p1474
(dp1475
g28
(dp1476
S'>49778.0'
p1477
(dp1478
g13
(dp1479
S'<2.0'
p1480
(dp1481
g28
(dp1482
S'<74758.0'
p1483
(dp1484
g13
(dp1485
S'<0.0'
p1486
(dp1487
g53
(dp1488
S'<48836.0'
p1489
(dp1490
g32
(dp1491
S'>7.5'
p1492
(dp1493
g13
(dp1494
S'<0.0'
p1495
I0
sS'>0.0'
p1496
I1
sssS'<7.5'
p1497
I1
sssS'>48836.0'
p1498
I0
sssS'>0.0'
p1499
(dp1500
g39
(dp1501
S'>0.5'
p1502
I1
sS'<0.5'
p1503
(dp1504
g17
(dp1505
S'<76.5'
p1506
(dp1507
g28
(dp1508
S'>51577.5'
p1509
I0
sS'<51577.5'
p1510
I1
sssS'>76.5'
p1511
I1
sssssssS'>74758.0'
p1512
(dp1513
g17
(dp1514
S'>40.5'
p1515
(dp1516
g53
(dp1517
S'<0.0'
p1518
(dp1519
g289
(dp1520
S'>1057753.5'
p1521
I0
sS'<1057753.5'
p1522
I1
sssS'>0.0'
p1523
I0
sssS'<40.5'
p1524
(dp1525
g13
(dp1526
S'<0.0'
p1527
(dp1528
g32
(dp1529
S'>14.5'
p1530
I0
sS'<14.5'
p1531
I1
sssS'>0.0'
p1532
I0
sssssssS'>2.0'
p1533
(dp1534
g48
(dp1535
S'>804.0'
p1536
(dp1537
g48
(dp1538
S'>814.0'
p1539
(dp1540
g32
(dp1541
S'<17.5'
p1542
(dp1543
g39
(dp1544
S'<7.0'
p1545
I1
sS'>7.0'
p1546
(dp1547
g17
(dp1548
S'>59.0'
p1549
I1
sS'<59.0'
p1550
I0
sssssS'>17.5'
p1551
I0
sssS'<814.0'
p1552
I0
sssS'<804.0'
p1553
(dp1554
g13
(dp1555
S'<2.0'
p1556
I1
sS'>2.0'
p1557
(dp1558
g289
(dp1559
S'>960088.0'
p1560
(dp1561
g17
(dp1562
S'>58.5'
p1563
I1
sS'<58.5'
p1564
I0
sssS'<960088.0'
p1565
(dp1566
g53
(dp1567
S'<0.0'
p1568
I1
sS'>0.0'
p1569
(dp1570
g289
(dp1571
S'<526284.5'
p1572
(dp1573
g28
(dp1574
S'>64341.5'
p1575
(dp1576
g17
(dp1577
S'<25.0'
p1578
I1
sS'>25.0'
p1579
(dp1580
g28
(dp1581
S'<71651.5'
p1582
(dp1583
g48
(dp1584
S'>696.5'
p1585
I0
sS'<696.5'
p1586
(dp1587
g28
(dp1588
S'<65341.5'
p1589
I0
sS'>65341.5'
p1590
(dp1591
g53
(dp1592
S'>64111.0'
p1593
I0
sS'<64111.0'
p1594
I1
sssssssS'>71651.5'
p1595
I0
sssssS'<64341.5'
p1596
I1
sssS'>526284.5'
p1597
I1
sssssssssssssS'<49778.0'
p1598
(dp1599
g13
(dp1600
S'>1.0'
p1601
(dp1602
g39
(dp1603
S'>9.0'
p1604
(dp1605
g28
(dp1606
S'>46787.5'
p1607
I0
sS'<46787.5'
p1608
I1
sssS'<9.0'
p1609
(dp1610
g32
(dp1611
S'<11.0'
p1612
I0
sS'>11.0'
p1613
(dp1614
g32
(dp1615
S'<14.0'
p1616
(dp1617
g39
(dp1618
S'<7.0'
p1619
(dp1620
g28
(dp1621
S'<29211.5'
p1622
I1
sS'>29211.5'
p1623
(dp1624
g53
(dp1625
S'<68038.5'
p1626
I0
sS'>68038.5'
p1627
I1
sssssS'>7.0'
p1628
I0
sssS'>14.0'
p1629
I0
sssssssS'<1.0'
p1630
(dp1631
g17
(dp1632
S'>59.0'
p1633
(dp1634
g32
(dp1635
S'<17.5'
p1636
I1
sS'>17.5'
p1637
(dp1638
g28
(dp1639
S'>24002.5'
p1640
(dp1641
g28
(dp1642
S'<29753.5'
p1643
I1
sS'>29753.5'
p1644
I0
sssS'<24002.5'
p1645
I0
sssssS'<59.0'
p1646
(dp1647
g17
(dp1648
S'<37.5'
p1649
(dp1650
g28
(dp1651
S'<23966.5'
p1652
I0
sS'>23966.5'
p1653
(dp1654
g17
(dp1655
S'<20.5'
p1656
I0
sS'>20.5'
p1657
I1
sssssS'>37.5'
p1658
I0
sssssssssS'>99618.0'
p1659
(dp1660
g17
(dp1661
S'<69.5'
p1662
(dp1663
g53
(dp1664
S'<0.0'
p1665
I0
sS'>0.0'
p1666
(dp1667
g13
(dp1668
S'<0.0'
p1669
(dp1670
g28
(dp1671
S'>134917.0'
p1672
I0
sS'<134917.0'
p1673
(dp1674
g48
(dp1675
S'>357.0'
p1676
I1
sS'<357.0'
p1677
I0
sssssS'>0.0'
p1678
(dp1679
g53
(dp1680
S'<0.0'
p1681
(dp1682
g39
(dp1683
S'<8.0'
p1684
(dp1685
g48
(dp1686
S'>409.5'
p1687
I0
sS'<409.5'
p1688
(dp1689
g53
(dp1690
S'<0.0'
p1691
I0
sS'>0.0'
p1692
I1
sssssS'>8.0'
p1693
(dp1694
g53
(dp1695
S'<0.0'
p1696
(dp1697
g53
(dp1698
S'<0.0'
p1699
(dp1700
g53
(dp1701
S'<0.0'
p1702
I1
sS'>0.0'
p1703
I0
sssS'>0.0'
p1704
I1
sssS'>0.0'
p1705
(dp1706
g28
(dp1707
S'>102934.5'
p1708
I0
sS'<102934.5'
p1709
I1
sssssssS'>0.0'
p1710
(dp1711
g32
(dp1712
S'<14.0'
p1713
(dp1714
g87
(dp1715
S'>15.0'
p1716
(dp1717
g53
(dp1718
S'<0.0'
p1719
I0
sS'>0.0'
p1720
I1
sssS'<15.0'
p1721
(dp1722
g13
(dp1723
S'>4.0'
p1724
I1
sS'<4.0'
p1725
(dp1726
g53
(dp1727
S'<0.0'
p1728
(dp1729
g28
(dp1730
S'>114147.5'
p1731
I1
sS'<114147.5'
p1732
I0
sssS'>0.0'
p1733
I0
sssssssS'>14.0'
p1734
I0
sssssssssS'>69.5'
p1735
(dp1736
g28
(dp1737
S'<144350.0'
p1738
I0
sS'>144350.0'
p1739
(dp1740
g28
(dp1741
S'<146125.0'
p1742
I1
sS'>146125.0'
p1743
I0
sssssssssg268
(dp1744
g1
(dp1745
S'>195884.5'
p1746
(dp1747
g28
(dp1748
S'>96656.5'
p1749
(dp1750
g1
(dp1751
S'<217507.0'
p1752
I1
sS'>217507.0'
p1753
(dp1754
g39
(dp1755
S'>9.0'
p1756
I0
sS'<9.0'
p1757
(dp1758
g13
(dp1759
S'<0.0'
p1760
I0
sS'>0.0'
p1761
(dp1762
g53
(dp1763
S'<0.0'
p1764
(dp1765
g1
(dp1766
S'>217720.5'
p1767
I1
sS'<217720.5'
p1768
I0
sssS'>0.0'
p1769
(dp1770
g17
(dp1771
S'<52.0'
p1772
(dp1773
g53
(dp1774
S'<0.0'
p1775
I1
sS'>0.0'
p1776
I0
sssS'>52.0'
p1777
I1
sssssssssssS'<96656.5'
p1778
(dp1779
g53
(dp1780
S'>46991.5'
p1781
(dp1782
g28
(dp1783
S'<48566.0'
p1784
(dp1785
g53
(dp1786
S'>58164.0'
p1787
(dp1788
g28
(dp1789
S'<25592.5'
p1790
I0
sS'>25592.5'
p1791
I1
sssS'<58164.0'
p1792
(dp1793
g32
(dp1794
S'>5.5'
p1795
I0
sS'<5.5'
p1796
(dp1797
g28
(dp1798
S'>31962.5'
p1799
I1
sS'<31962.5'
p1800
I0
sssssssS'>48566.0'
p1801
(dp1802
g17
(dp1803
S'<78.0'
p1804
I1
sS'>78.0'
p1805
(dp1806
g28
(dp1807
S'>70595.0'
p1808
I1
sS'<70595.0'
p1809
I0
sssssssS'<46991.5'
p1810
(dp1811
g289
(dp1812
S'>444801.0'
p1813
(dp1814
g13
(dp1815
S'>3.0'
p1816
I0
sS'<3.0'
p1817
(dp1818
g87
(dp1819
S'<14.0'
p1820
(dp1821
g28
(dp1822
S'>79405.5'
p1823
I1
sS'<79405.5'
p1824
(dp1825
g13
(dp1826
S'<2.0'
p1827
I0
sS'>2.0'
p1828
(dp1829
g28
(dp1830
S'>75427.5'
p1831
I0
sS'<75427.5'
p1832
I1
sssssssS'>14.0'
p1833
I1
sssssS'<444801.0'
p1834
(dp1835
g39
(dp1836
S'>1.0'
p1837
I0
sS'<1.0'
p1838
(dp1839
g87
(dp1840
S'<21.0'
p1841
I0
sS'>21.0'
p1842
(dp1843
g53
(dp1844
S'<24897.5'
p1845
I1
sS'>24897.5'
p1846
I0
sssssssssssssS'<195884.5'
p1847
(dp1848
g28
(dp1849
S'<91170.0'
p1850
(dp1851
g1
(dp1852
S'>83922.0'
p1853
(dp1854
g53
(dp1855
S'>56797.5'
p1856
I1
sS'<56797.5'
p1857
(dp1858
g13
(dp1859
S'>2.5'
p1860
(dp1861
g87
(dp1862
S'<16.0'
p1863
(dp1864
g48
(dp1865
S'>745.0'
p1866
I0
sS'<745.0'
p1867
(dp1868
g13
(dp1869
S'>3.0'
p1870
I1
sS'<3.0'
p1871
I0
sssssS'>16.0'
p1872
(dp1873
g32
(dp1874
S'>14.5'
p1875
I0
sS'<14.5'
p1876
(dp1877
g48
(dp1878
S'<463.0'
p1879
(dp1880
g53
(dp1881
S'>56041.5'
p1882
I0
sS'<56041.5'
p1883
I1
sssS'>463.0'
p1884
(dp1885
g17
(dp1886
S'>74.0'
p1887
I1
sS'<74.0'
p1888
I0
sssssssssS'<2.5'
p1889
(dp1890
g1
(dp1891
S'>167719.0'
p1892
I1
sS'<167719.0'
p1893
(dp1894
g32
(dp1895
S'>5.5'
p1896
(dp1897
g28
(dp1898
S'>33464.0'
p1899
(dp1900
g53
(dp1901
S'<21853.5'
p1902
(dp1903
g53
(dp1904
S'<0.0'
p1905
I1
sS'>0.0'
p1906
(dp1907
g87
(dp1908
S'<13.0'
p1909
(dp1910
g28
(dp1911
S'>78641.5'
p1912
I0
sS'<78641.5'
p1913
I1
sssS'>13.0'
p1914
I0
sssssS'>21853.5'
p1915
I1
sssS'<33464.0'
p1916
(dp1917
g13
(dp1918
S'<1.5'
p1919
I1
sS'>1.5'
p1920
(dp1921
g17
(dp1922
S'>23.0'
p1923
I0
sS'<23.0'
p1924
I1
sssssssS'<5.5'
p1925
(dp1926
g48
(dp1927
S'>749.5'
p1928
(dp1929
g53
(dp1930
S'<14142.5'
p1931
I0
sS'>14142.5'
p1932
I1
sssS'<749.5'
p1933
I0
sssssssssssS'<83922.0'
p1934
(dp1935
g48
(dp1936
S'>509.0'
p1937
(dp1938
g17
(dp1939
S'>33.5'
p1940
(dp1941
g28
(dp1942
S'<20603.5'
p1943
I0
sS'>20603.5'
p1944
(dp1945
g28
(dp1946
S'>81262.5'
p1947
(dp1948
g28
(dp1949
S'<82079.0'
p1950
I0
sS'>82079.0'
p1951
I1
sssS'<81262.5'
p1952
I1
sssssS'<33.5'
p1953
(dp1954
g13
(dp1955
S'>4.0'
p1956
I0
sS'<4.0'
p1957
(dp1958
g28
(dp1959
S'<22297.0'
p1960
I0
sS'>22297.0'
p1961
I1
sssssssS'<509.0'
p1962
I1
sssssS'>91170.0'
p1963
(dp1964
g48
(dp1965
S'>486.5'
p1966
(dp1967
g17
(dp1968
S'>40.0'
p1969
(dp1970
g17
(dp1971
S'>80.0'
p1972
I0
sS'<80.0'
p1973
(dp1974
g39
(dp1975
S'>4.0'
p1976
I1
sS'<4.0'
p1977
(dp1978
g53
(dp1979
S'<0.0'
p1980
(dp1981
g48
(dp1982
S'>804.0'
p1983
(dp1984
g39
(dp1985
S'>0.5'
p1986
I1
sS'<0.5'
p1987
(dp1988
g17
(dp1989
S'<46.0'
p1990
I1
sS'>46.0'
p1991
I0
sssssS'<804.0'
p1992
I1
sssS'>0.0'
p1993
(dp1994
g28
(dp1995
S'<97021.5'
p1996
I1
sS'>97021.5'
p1997
I0
sssssssssS'<40.0'
p1998
(dp1999
g53
(dp2000
S'<0.0'
p2001
(dp2002
g289
(dp2003
S'>83735.5'
p2004
(dp2005
g87
(dp2006
S'<24.5'
p2007
I1
sS'>24.5'
p2008
(dp2009
g48
(dp2010
S'>622.5'
p2011
(dp2012
g53
(dp2013
S'<0.0'
p2014
I0
sS'>0.0'
p2015
I1
sssS'<622.5'
p2016
I1
sssssS'<83735.5'
p2017
I0
sssS'>0.0'
p2018
I0
sssssS'<486.5'
p2019
(dp2020
g1
(dp2021
S'<22905.5'
p2022
(dp2023
g53
(dp2024
S'<0.0'
p2025
I1
sS'>0.0'
p2026
I0
sssS'>22905.5'
p2027
I1
sssssssssssssS'>263212.5'
p2028
(dp2029
g5
(dp2030
g1058
(dp2031
g17
(dp2032
S'>59.0'
p2033
(dp2034
g9
(dp2035
g11
(dp2036
g13
(dp2037
S'>1.0'
p2038
(dp2039
g1
(dp2040
S'>407066.5'
p2041
I1
sS'<407066.5'
p2042
(dp2043
g28
(dp2044
S'<133666.0'
p2045
(dp2046
g39
(dp2047
S'<0.0'
p2048
(dp2049
g28
(dp2050
S'>50328.0'
p2051
I0
sS'<50328.0'
p2052
I1
sssS'>0.0'
p2053
(dp2054
g1
(dp2055
S'>292697.0'
p2056
I1
sS'<292697.0'
p2057
(dp2058
g17
(dp2059
S'>62.0'
p2060
(dp2061
g48
(dp2062
S'>742.0'
p2063
I0
sS'<742.0'
p2064
I1
sssS'<62.0'
p2065
I0
sssssssS'>133666.0'
p2066
(dp2067
g17
(dp2068
S'<69.5'
p2069
I1
sS'>69.5'
p2070
(dp2071
g13
(dp2072
S'<3.5'
p2073
(dp2074
g32
(dp2075
S'<3.5'
p2076
I1
sS'>3.5'
p2077
I0
sssS'>3.5'
p2078
I1
sssssssssS'<1.0'
p2079
I1
sssg268
(dp2080
g53
(dp2081
S'<5110.0'
p2082
(dp2083
g1
(dp2084
S'<301438.5'
p2085
(dp2086
g17
(dp2087
S'<76.5'
p2088
I1
sS'>76.5'
p2089
I0
sssS'>301438.5'
p2090
(dp2091
g17
(dp2092
S'>59.0'
p2093
(dp2094
g28
(dp2095
S'<75861.0'
p2096
(dp2097
g17
(dp2098
S'<73.5'
p2099
I1
sS'>73.5'
p2100
I0
sssS'>75861.0'
p2101
(dp2102
g13
(dp2103
S'>4.0'
p2104
(dp2105
g28
(dp2106
S'>145917.5'
p2107
I0
sS'<145917.5'
p2108
I1
sssS'<4.0'
p2109
(dp2110
g39
(dp2111
S'>1.0'
p2112
(dp2113
g87
(dp2114
S'<28.0'
p2115
I0
sS'>28.0'
p2116
(dp2117
g53
(dp2118
S'<0.0'
p2119
I1
sS'>0.0'
p2120
I0
sssssS'<1.0'
p2121
(dp2122
g289
(dp2123
S'<76442.0'
p2124
I0
sS'>76442.0'
p2125
(dp2126
g17
(dp2127
S'>62.0'
p2128
I1
sS'<62.0'
p2129
I0
sssssssssssS'<59.0'
p2130
(dp2131
g28
(dp2132
S'<85668.5'
p2133
I0
sS'>85668.5'
p2134
I1
sssssssS'>5110.0'
p2135
(dp2136
g1
(dp2137
S'<308724.0'
p2138
(dp2139
g48
(dp2140
S'<311.0'
p2141
I1
sS'>311.0'
p2142
I0
sssS'>308724.0'
p2143
(dp2144
g28
(dp2145
S'>26621.5'
p2146
(dp2147
g32
(dp2148
S'<7.0'
p2149
(dp2150
g32
(dp2151
S'<7.0'
p2152
(dp2153
g1
(dp2154
S'>473302.0'
p2155
I0
sS'<473302.0'
p2156
I1
sssS'>7.0'
p2157
I0
sssS'>7.0'
p2158
I1
sssS'<26621.5'
p2159
I0
sssssssssS'<59.0'
p2160
(dp2161
g17
(dp2162
S'<39.0'
p2163
(dp2164
g9
(dp2165
g11
(dp2166
g28
(dp2167
S'>146650.5'
p2168
(dp2169
g53
(dp2170
S'<0.0'
p2171
(dp2172
g17
(dp2173
S'<24.0'
p2174
I1
sS'>24.0'
p2175
I0
sssS'>0.0'
p2176
I1
sssS'<146650.5'
p2177
(dp2178
g32
(dp2179
S'>1.0'
p2180
(dp2181
g1
(dp2182
S'>497064.5'
p2183
I0
sS'<497064.5'
p2184
(dp2185
g28
(dp2186
S'<70249.5'
p2187
(dp2188
g53
(dp2189
S'<29852.0'
p2190
(dp2191
g32
(dp2192
S'>12.0'
p2193
(dp2194
g13
(dp2195
S'>2.5'
p2196
(dp2197
g28
(dp2198
S'>63543.5'
p2199
I0
sS'<63543.5'
p2200
I1
sssS'<2.5'
p2201
I0
sssS'<12.0'
p2202
(dp2203
g17
(dp2204
S'>22.0'
p2205
I1
sS'<22.0'
p2206
I0
sssssS'>29852.0'
p2207
(dp2208
g28
(dp2209
S'<64281.0'
p2210
I1
sS'>64281.0'
p2211
I0
sssssS'>70249.5'
p2212
(dp2213
g17
(dp2214
S'<34.0'
p2215
I1
sS'>34.0'
p2216
(dp2217
g289
(dp2218
S'<258698.5'
p2219
(dp2220
g53
(dp2221
S'<0.0'
p2222
(dp2223
g28
(dp2224
S'>133760.5'
p2225
I0
sS'<133760.5'
p2226
I1
sssS'>0.0'
p2227
I0
sssS'>258698.5'
p2228
I1
sssssssssS'<1.0'
p2229
(dp2230
g53
(dp2231
S'<0.0'
p2232
I1
sS'>0.0'
p2233
I0
sssssssg268
(dp2234
g1
(dp2235
S'<403054.5'
p2236
(dp2237
g1
(dp2238
S'>294165.5'
p2239
(dp2240
g28
(dp2241
S'>100679.5'
p2242
(dp2243
g28
(dp2244
S'<146664.5'
p2245
(dp2246
g32
(dp2247
S'<19.0'
p2248
I1
sS'>19.0'
p2249
(dp2250
g28
(dp2251
S'<116666.5'
p2252
I0
sS'>116666.5'
p2253
I1
sssssS'>146664.5'
p2254
I0
sssS'<100679.5'
p2255
(dp2256
g28
(dp2257
S'>49187.5'
p2258
(dp2259
g48
(dp2260
S'>543.5'
p2261
(dp2262
g289
(dp2263
S'<159420.5'
p2264
I0
sS'>159420.5'
p2265
(dp2266
g39
(dp2267
S'>4.0'
p2268
(dp2269
g28
(dp2270
S'<88069.0'
p2271
I0
sS'>88069.0'
p2272
I1
sssS'<4.0'
p2273
I1
sssssS'<543.5'
p2274
I0
sssS'<49187.5'
p2275
(dp2276
g17
(dp2277
S'>30.0'
p2278
(dp2279
g28
(dp2280
S'<48649.5'
p2281
I1
sS'>48649.5'
p2282
(dp2283
g28
(dp2284
S'>48847.0'
p2285
I1
sS'<48847.0'
p2286
I0
sssssS'<30.0'
p2287
(dp2288
g1
(dp2289
S'>373868.0'
p2290
I0
sS'<373868.0'
p2291
(dp2292
g28
(dp2293
S'>29759.0'
p2294
I1
sS'<29759.0'
p2295
I0
sssssssssssS'<294165.5'
p2296
I1
sssS'>403054.5'
p2297
(dp2298
g28
(dp2299
S'<78813.5'
p2300
(dp2301
g28
(dp2302
S'>76816.0'
p2303
I1
sS'<76816.0'
p2304
(dp2305
g53
(dp2306
S'>70167.5'
p2307
I1
sS'<70167.5'
p2308
(dp2309
g48
(dp2310
S'<315.0'
p2311
I1
sS'>315.0'
p2312
(dp2313
g53
(dp2314
S'<12391.0'
p2315
(dp2316
g53
(dp2317
S'<10738.5'
p2318
I0
sS'>10738.5'
p2319
I1
sssS'>12391.0'
p2320
I0
sssssssssS'>78813.5'
p2321
I0
sssssssS'>39.0'
p2322
(dp2323
g9
(dp2324
g11
(dp2325
g28
(dp2326
S'>89245.0'
p2327
(dp2328
g87
(dp2329
S'>23.0'
p2330
(dp2331
g13
(dp2332
S'<0.0'
p2333
I1
sS'>0.0'
p2334
(dp2335
g53
(dp2336
S'<0.0'
p2337
(dp2338
g48
(dp2339
S'>505.5'
p2340
I0
sS'<505.5'
p2341
(dp2342
g53
(dp2343
S'<0.0'
p2344
(dp2345
g289
(dp2346
S'<1013299.0'
p2347
I0
sS'>1013299.0'
p2348
I1
sssS'>0.0'
p2349
I1
sssssS'>0.0'
p2350
I1
sssssS'<23.0'
p2351
(dp2352
g13
(dp2353
S'<1.5'
p2354
I0
sS'>1.5'
p2355
(dp2356
g53
(dp2357
S'<0.0'
p2358
I1
sS'>0.0'
p2359
(dp2360
g1
(dp2361
S'>361870.5'
p2362
(dp2363
g32
(dp2364
S'<18.5'
p2365
(dp2366
g13
(dp2367
S'>4.0'
p2368
(dp2369
g289
(dp2370
S'<516340.0'
p2371
(dp2372
g48
(dp2373
S'<745.5'
p2374
I0
sS'>745.5'
p2375
I1
sssS'>516340.0'
p2376
I1
sssS'<4.0'
p2377
I0
sssS'>18.5'
p2378
(dp2379
g28
(dp2380
S'<135901.0'
p2381
I1
sS'>135901.0'
p2382
I0
sssssS'<361870.5'
p2383
I0
sssssssssS'<89245.0'
p2384
(dp2385
g28
(dp2386
S'>43358.0'
p2387
I0
sS'<43358.0'
p2388
(dp2389
g28
(dp2390
S'>42201.5'
p2391
I1
sS'<42201.5'
p2392
(dp2393
g1
(dp2394
S'<458388.0'
p2395
I0
sS'>458388.0'
p2396
(dp2397
g28
(dp2398
S'<29476.5'
p2399
I1
sS'>29476.5'
p2400
I0
sssssssssssg268
(dp2401
g1
(dp2402
S'>293262.0'
p2403
(dp2404
g17
(dp2405
S'>39.5'
p2406
(dp2407
g1
(dp2408
S'<378706.5'
p2409
(dp2410
g17
(dp2411
S'>54.0'
p2412
(dp2413
g289
(dp2414
S'>228512.5'
p2415
(dp2416
g53
(dp2417
S'>39533.0'
p2418
I1
sS'<39533.0'
p2419
(dp2420
g48
(dp2421
S'>433.0'
p2422
(dp2423
g53
(dp2424
S'<0.0'
p2425
I1
sS'>0.0'
p2426
I0
sssS'<433.0'
p2427
I0
sssssS'<228512.5'
p2428
I1
sssS'<54.0'
p2429
I1
sssS'>378706.5'
p2430
(dp2431
g17
(dp2432
S'>53.0'
p2433
(dp2434
g53
(dp2435
S'<0.0'
p2436
(dp2437
g289
(dp2438
S'<502653.5'
p2439
I0
sS'>502653.5'
p2440
I1
sssS'>0.0'
p2441
I1
sssS'<53.0'
p2442
(dp2443
g48
(dp2444
S'>352.5'
p2445
(dp2446
g28
(dp2447
S'>48512.0'
p2448
(dp2449
g87
(dp2450
S'<5.0'
p2451
(dp2452
g28
(dp2453
S'>75919.0'
p2454
I0
sS'<75919.0'
p2455
I1
sssS'>5.0'
p2456
(dp2457
g32
(dp2458
S'<13.0'
p2459
(dp2460
g1
(dp2461
S'<402268.5'
p2462
I1
sS'>402268.5'
p2463
(dp2464
g32
(dp2465
S'<5.0'
p2466
(dp2467
g28
(dp2468
S'<140568.5'
p2469
I0
sS'>140568.5'
p2470
I1
sssS'>5.0'
p2471
(dp2472
g17
(dp2473
S'>52.5'
p2474
I0
sS'<52.5'
p2475
I1
sssssssS'>13.0'
p2476
(dp2477
g17
(dp2478
S'>49.0'
p2479
I1
sS'<49.0'
p2480
I0
sssssssS'<48512.0'
p2481
I1
sssS'<352.5'
p2482
I0
sssssssS'<39.5'
p2483
(dp2484
g53
(dp2485
S'<0.0'
p2486
(dp2487
g28
(dp2488
S'<115483.0'
p2489
I1
sS'>115483.0'
p2490
I0
sssS'>0.0'
p2491
I0
sssssS'<293262.0'
p2492
(dp2493
g53
(dp2494
S'<0.0'
p2495
(dp2496
g28
(dp2497
S'<124467.5'
p2498
I1
sS'>124467.5'
p2499
I0
sssS'>0.0'
p2500
I0
sssssssssssg11
(dp2501
g28
(dp2502
S'<124449.0'
p2503
(dp2504
g17
(dp2505
S'<59.5'
p2506
(dp2507
g28
(dp2508
S'>49790.5'
p2509
(dp2510
g53
(dp2511
S'<0.0'
p2512
(dp2513
g13
(dp2514
S'<0.0'
p2515
I0
sS'>0.0'
p2516
(dp2517
g48
(dp2518
S'<667.5'
p2519
(dp2520
g53
(dp2521
S'<0.0'
p2522
I1
sS'>0.0'
p2523
(dp2524
g53
(dp2525
S'<0.0'
p2526
I0
sS'>0.0'
p2527
(dp2528
g53
(dp2529
S'<0.0'
p2530
I1
sS'>0.0'
p2531
(dp2532
g87
(dp2533
S'<3.5'
p2534
(dp2535
g53
(dp2536
S'<0.0'
p2537
I1
sS'>0.0'
p2538
I0
sssS'>3.5'
p2539
(dp2540
g53
(dp2541
S'<0.0'
p2542
(dp2543
g13
(dp2544
S'<0.0'
p2545
(dp2546
g28
(dp2547
S'<86391.5'
p2548
I1
sS'>86391.5'
p2549
I0
sssS'>0.0'
p2550
(dp2551
g28
(dp2552
S'>75760.5'
p2553
(dp2554
g48
(dp2555
S'>426.0'
p2556
I1
sS'<426.0'
p2557
I0
sssS'<75760.5'
p2558
I0
sssssS'>0.0'
p2559
(dp2560
g53
(dp2561
S'<0.0'
p2562
I0
sS'>0.0'
p2563
(dp2564
g17
(dp2565
S'>23.0'
p2566
I1
sS'<23.0'
p2567
I0
sssssssssssssssS'>667.5'
p2568
I1
sssssS'>0.0'
p2569
(dp2570
g17
(dp2571
S'<39.0'
p2572
(dp2573
g28
(dp2574
S'>74785.5'
p2575
(dp2576
g289
(dp2577
S'>699886.5'
p2578
(dp2579
g53
(dp2580
S'<0.0'
p2581
I1
sS'>0.0'
p2582
(dp2583
g13
(dp2584
S'>4.0'
p2585
I1
sS'<4.0'
p2586
(dp2587
g17
(dp2588
S'<37.5'
p2589
I0
sS'>37.5'
p2590
I1
sssssssS'<699886.5'
p2591
I0
sssS'<74785.5'
p2592
(dp2593
g9
(dp2594
g11
(dp2595
g289
(dp2596
S'<511363.0'
p2597
I1
sS'>511363.0'
p2598
(dp2599
g289
(dp2600
S'>567721.0'
p2601
(dp2602
g1
(dp2603
S'<468113.0'
p2604
I1
sS'>468113.0'
p2605
I0
sssS'<567721.0'
p2606
I0
sssssg268
(dp2607
g53
(dp2608
S'<47807.5'
p2609
(dp2610
g17
(dp2611
S'>22.0'
p2612
(dp2613
g13
(dp2614
S'>1.0'
p2615
I1
sS'<1.0'
p2616
(dp2617
g53
(dp2618
S'<24184.0'
p2619
I1
sS'>24184.0'
p2620
(dp2621
g28
(dp2622
S'>56775.0'
p2623
I0
sS'<56775.0'
p2624
I1
sssssssS'<22.0'
p2625
I0
sssS'>47807.5'
p2626
I0
sssssssS'>39.0'
p2627
(dp2628
g28
(dp2629
S'>72748.5'
p2630
(dp2631
g289
(dp2632
S'<395782.5'
p2633
I1
sS'>395782.5'
p2634
(dp2635
g53
(dp2636
S'<0.0'
p2637
I0
sS'>0.0'
p2638
(dp2639
g1
(dp2640
S'<339929.5'
p2641
(dp2642
g53
(dp2643
S'<0.0'
p2644
(dp2645
g48
(dp2646
S'<747.5'
p2647
I1
sS'>747.5'
p2648
(dp2649
g28
(dp2650
S'>109436.5'
p2651
I0
sS'<109436.5'
p2652
I1
sssssS'>0.0'
p2653
I0
sssS'>339929.5'
p2654
I1
sssssssS'<72748.5'
p2655
(dp2656
g9
(dp2657
g11
(dp2658
g17
(dp2659
S'>51.0'
p2660
I0
sS'<51.0'
p2661
(dp2662
g32
(dp2663
S'<7.0'
p2664
(dp2665
g53
(dp2666
S'>30781.0'
p2667
(dp2668
g28
(dp2669
S'>61550.5'
p2670
I1
sS'<61550.5'
p2671
(dp2672
g28
(dp2673
S'>55811.0'
p2674
I0
sS'<55811.0'
p2675
I1
sssssS'<30781.0'
p2676
I0
sssS'>7.0'
p2677
I0
sssssg268
(dp2678
g53
(dp2679
S'>65435.0'
p2680
(dp2681
g32
(dp2682
S'>15.0'
p2683
I1
sS'<15.0'
p2684
I0
sssS'<65435.0'
p2685
(dp2686
g32
(dp2687
S'>9.0'
p2688
I1
sS'<9.0'
p2689
(dp2690
g48
(dp2691
S'>666.5'
p2692
I1
sS'<666.5'
p2693
(dp2694
g53
(dp2695
S'>23086.5'
p2696
(dp2697
g28
(dp2698
S'>69974.5'
p2699
I0
sS'<69974.5'
p2700
I1
sssS'<23086.5'
p2701
I0
sssssssssssssssssS'<49790.5'
p2702
(dp2703
g9
(dp2704
g11
(dp2705
g53
(dp2706
S'<52412.5'
p2707
I0
sS'>52412.5'
p2708
(dp2709
g53
(dp2710
S'<53673.5'
p2711
I1
sS'>53673.5'
p2712
(dp2713
g28
(dp2714
S'<43086.0'
p2715
I0
sS'>43086.0'
p2716
(dp2717
g17
(dp2718
S'>39.5'
p2719
I0
sS'<39.5'
p2720
I1
sssssssssg268
(dp2721
g53
(dp2722
S'<35933.5'
p2723
(dp2724
g87
(dp2725
S'>22.0'
p2726
I1
sS'<22.0'
p2727
(dp2728
g17
(dp2729
S'>37.0'
p2730
I0
sS'<37.0'
p2731
(dp2732
g28
(dp2733
S'<33229.5'
p2734
I0
sS'>33229.5'
p2735
(dp2736
g28
(dp2737
S'>47048.0'
p2738
I0
sS'<47048.0'
p2739
I1
sssssssssS'>35933.5'
p2740
(dp2741
g17
(dp2742
S'<33.0'
p2743
(dp2744
g53
(dp2745
S'>57004.0'
p2746
(dp2747
g28
(dp2748
S'>25091.0'
p2749
I0
sS'<25091.0'
p2750
I1
sssS'<57004.0'
p2751
(dp2752
g28
(dp2753
S'<45188.5'
p2754
I1
sS'>45188.5'
p2755
I0
sssssS'>33.0'
p2756
(dp2757
g13
(dp2758
S'<0.0'
p2759
I0
sS'>0.0'
p2760
(dp2761
g53
(dp2762
S'>56055.5'
p2763
I1
sS'<56055.5'
p2764
(dp2765
g28
(dp2766
S'>35198.0'
p2767
I1
sS'<35198.0'
p2768
(dp2769
g28
(dp2770
S'<26937.0'
p2771
I1
sS'>26937.0'
p2772
(dp2773
g17
(dp2774
S'>41.5'
p2775
I0
sS'<41.5'
p2776
I1
sssssssssssssssssssS'>59.5'
p2777
(dp2778
g28
(dp2779
S'<74737.5'
p2780
(dp2781
g9
(dp2782
g11
(dp2783
g28
(dp2784
S'<25604.0'
p2785
I0
sS'>25604.0'
p2786
(dp2787
g28
(dp2788
S'>28283.5'
p2789
(dp2790
g53
(dp2791
S'<69636.0'
p2792
I1
sS'>69636.0'
p2793
(dp2794
g53
(dp2795
S'<72077.0'
p2796
I0
sS'>72077.0'
p2797
I1
sssssS'<28283.5'
p2798
(dp2799
g39
(dp2800
S'<2.0'
p2801
(dp2802
g17
(dp2803
S'<64.0'
p2804
I1
sS'>64.0'
p2805
I0
sssS'>2.0'
p2806
I1
sssssssg268
(dp2807
g53
(dp2808
S'<51819.0'
p2809
(dp2810
g28
(dp2811
S'<58562.5'
p2812
(dp2813
g53
(dp2814
S'<30794.0'
p2815
(dp2816
g39
(dp2817
S'>5.5'
p2818
(dp2819
g39
(dp2820
S'<6.5'
p2821
I0
sS'>6.5'
p2822
(dp2823
g53
(dp2824
S'>5145.5'
p2825
I1
sS'<5145.5'
p2826
I0
sssssS'<5.5'
p2827
I1
sssS'>30794.0'
p2828
(dp2829
g87
(dp2830
S'<17.5'
p2831
(dp2832
g17
(dp2833
S'>66.0'
p2834
I1
sS'<66.0'
p2835
(dp2836
g13
(dp2837
S'>3.0'
p2838
I0
sS'<3.0'
p2839
I1
sssssS'>17.5'
p2840
I0
sssssS'>58562.5'
p2841
I0
sssS'>51819.0'
p2842
I0
sssssS'>74737.5'
p2843
(dp2844
g48
(dp2845
S'<570.0'
p2846
(dp2847
g87
(dp2848
S'<2.0'
p2849
(dp2850
g28
(dp2851
S'>99125.5'
p2852
I1
sS'<99125.5'
p2853
I0
sssS'>2.0'
p2854
(dp2855
g28
(dp2856
S'<77057.5'
p2857
I1
sS'>77057.5'
p2858
(dp2859
g87
(dp2860
S'<29.5'
p2861
(dp2862
g39
(dp2863
S'<5.0'
p2864
(dp2865
g17
(dp2866
S'<78.0'
p2867
(dp2868
g48
(dp2869
S'<553.5'
p2870
(dp2871
g28
(dp2872
S'>112808.5'
p2873
(dp2874
g28
(dp2875
S'>115172.0'
p2876
I0
sS'<115172.0'
p2877
I1
sssS'<112808.5'
p2878
I0
sssS'>553.5'
p2879
I1
sssS'>78.0'
p2880
I1
sssS'>5.0'
p2881
I0
sssS'>29.5'
p2882
I1
sssssssS'>570.0'
p2883
(dp2884
g39
(dp2885
S'<0.0'
p2886
(dp2887
g53
(dp2888
S'<0.0'
p2889
I0
sS'>0.0'
p2890
I1
sssS'>0.0'
p2891
I0
sssssssssS'>124449.0'
p2892
(dp2893
g53
(dp2894
S'<12750.5'
p2895
(dp2896
g289
(dp2897
S'<277111.5'
p2898
(dp2899
g53
(dp2900
S'<0.0'
p2901
(dp2902
g17
(dp2903
S'<72.0'
p2904
I0
sS'>72.0'
p2905
(dp2906
g9
(dp2907
g11
I0
sg268
(dp2908
g39
(dp2909
S'<0.0'
p2910
I0
sS'>0.0'
p2911
I1
sssssssS'>0.0'
p2912
(dp2913
g1
(dp2914
S'>321885.0'
p2915
(dp2916
g87
(dp2917
S'<13.0'
p2918
I0
sS'>13.0'
p2919
(dp2920
g53
(dp2921
S'<0.0'
p2922
I1
sS'>0.0'
p2923
(dp2924
g28
(dp2925
S'<128293.0'
p2926
(dp2927
g28
(dp2928
S'>128053.5'
p2929
I1
sS'<128053.5'
p2930
I0
sssS'>128293.0'
p2931
I0
sssssssS'<321885.0'
p2932
(dp2933
g28
(dp2934
S'>130012.0'
p2935
I1
sS'<130012.0'
p2936
I0
sssssssS'>277111.5'
p2937
(dp2938
g32
(dp2939
S'>11.5'
p2940
(dp2941
g87
(dp2942
S'<15.5'
p2943
(dp2944
g32
(dp2945
S'>12.0'
p2946
I0
sS'<12.0'
p2947
(dp2948
g53
(dp2949
S'<0.0'
p2950
I0
sS'>0.0'
p2951
I1
sssssS'>15.5'
p2952
(dp2953
g17
(dp2954
S'<53.5'
p2955
(dp2956
g28
(dp2957
S'>134153.0'
p2958
(dp2959
g28
(dp2960
S'<147703.5'
p2961
I0
sS'>147703.5'
p2962
I1
sssS'<134153.0'
p2963
(dp2964
g28
(dp2965
S'<127525.5'
p2966
I0
sS'>127525.5'
p2967
I1
sssssS'>53.5'
p2968
I0
sssssS'<11.5'
p2969
(dp2970
g289
(dp2971
S'>1112301.5'
p2972
(dp2973
g28
(dp2974
S'<130605.0'
p2975
I1
sS'>130605.0'
p2976
I0
sssS'<1112301.5'
p2977
I0
sssssssS'>12750.5'
p2978
(dp2979
g9
(dp2980
g11
I0
sg268
I1
sssssssg7
(dp2981
g9
(dp2982
g11
(dp2983
g13
(dp2984
S'>0.5'
p2985
(dp2986
g17
(dp2987
S'>39.5'
p2988
(dp2989
g13
(dp2990
S'<1.5'
p2991
(dp2992
g17
(dp2993
S'<59.5'
p2994
(dp2995
g39
(dp2996
S'>6.0'
p2997
(dp2998
g87
(dp2999
S'<21.5'
p3000
(dp3001
g48
(dp3002
S'<430.0'
p3003
I0
sS'>430.0'
p3004
(dp3005
g28
(dp3006
S'>127791.5'
p3007
I0
sS'<127791.5'
p3008
(dp3009
g1
(dp3010
S'>476721.5'
p3011
I0
sS'<476721.5'
p3012
I1
sssssssS'>21.5'
p3013
I1
sssS'<6.0'
p3014
I1
sssS'>59.5'
p3015
(dp3016
g1
(dp3017
S'<272783.0'
p3018
I1
sS'>272783.0'
p3019
I0
sssssS'>1.5'
p3020
(dp3021
g13
(dp3022
S'<3.5'
p3023
(dp3024
g17
(dp3025
S'>55.5'
p3026
(dp3027
g1
(dp3028
S'<489162.0'
p3029
(dp3030
g53
(dp3031
S'<0.0'
p3032
(dp3033
g48
(dp3034
S'>367.5'
p3035
(dp3036
g1
(dp3037
S'<350182.5'
p3038
(dp3039
g53
(dp3040
S'<0.0'
p3041
(dp3042
g28
(dp3043
S'>86305.5'
p3044
I0
sS'<86305.5'
p3045
I1
sssS'>0.0'
p3046
I1
sssS'>350182.5'
p3047
(dp3048
g32
(dp3049
S'>9.0'
p3050
I1
sS'<9.0'
p3051
I0
sssssS'<367.5'
p3052
I0
sssS'>0.0'
p3053
(dp3054
g1
(dp3055
S'>409973.5'
p3056
(dp3057
g13
(dp3058
S'<2.0'
p3059
I0
sS'>2.0'
p3060
(dp3061
g13
(dp3062
S'>3.0'
p3063
(dp3064
g53
(dp3065
S'<0.0'
p3066
I0
sS'>0.0'
p3067
(dp3068
g48
(dp3069
S'<676.0'
p3070
I1
sS'>676.0'
p3071
I0
sssssS'<3.0'
p3072
I1
sssssS'<409973.5'
p3073
I1
sssssS'>489162.0'
p3074
I0
sssS'<55.5'
p3075
I1
sssS'>3.5'
p3076
(dp3077
g17
(dp3078
S'<58.0'
p3079
(dp3080
g1
(dp3081
S'<406441.5'
p3082
I0
sS'>406441.5'
p3083
(dp3084
g48
(dp3085
S'<365.0'
p3086
(dp3087
g28
(dp3088
S'<94495.5'
p3089
I0
sS'>94495.5'
p3090
I1
sssS'>365.0'
p3091
(dp3092
g39
(dp3093
S'>6.0'
p3094
I1
sS'<6.0'
p3095
I0
sssssssS'>58.0'
p3096
(dp3097
g1
(dp3098
S'>344332.0'
p3099
(dp3100
g17
(dp3101
S'<79.5'
p3102
(dp3103
g87
(dp3104
S'<10.5'
p3105
(dp3106
g1
(dp3107
S'>427334.0'
p3108
(dp3109
g32
(dp3110
S'>11.5'
p3111
I0
sS'<11.5'
p3112
I1
sssS'<427334.0'
p3113
I1
sssS'>10.5'
p3114
I1
sssS'>79.5'
p3115
I0
sssS'<344332.0'
p3116
(dp3117
g32
(dp3118
S'>14.5'
p3119
I0
sS'<14.5'
p3120
(dp3121
g17
(dp3122
S'<73.5'
p3123
I1
sS'>73.5'
p3124
(dp3125
g17
(dp3126
S'>78.5'
p3127
I1
sS'<78.5'
p3128
I0
sssssssssssssssS'<39.5'
p3129
(dp3130
g13
(dp3131
S'<1.5'
p3132
(dp3133
g48
(dp3134
S'<320.5'
p3135
I0
sS'>320.5'
p3136
(dp3137
g13
(dp3138
S'>1.0'
p3139
I0
sS'<1.0'
p3140
(dp3141
g87
(dp3142
S'<14.0'
p3143
(dp3144
g17
(dp3145
S'>26.5'
p3146
I1
sS'<26.5'
p3147
(dp3148
g28
(dp3149
S'>122495.0'
p3150
I1
sS'<122495.0'
p3151
(dp3152
g28
(dp3153
S'<71939.5'
p3154
I1
sS'>71939.5'
p3155
I0
sssssssS'>14.0'
p3156
I1
sssssssS'>1.5'
p3157
(dp3158
g13
(dp3159
S'>4.0'
p3160
(dp3161
g48
(dp3162
S'>786.0'
p3163
I1
sS'<786.0'
p3164
(dp3165
g1
(dp3166
S'<287318.0'
p3167
I0
sS'>287318.0'
p3168
(dp3169
g28
(dp3170
S'>27098.0'
p3171
(dp3172
g28
(dp3173
S'<67973.0'
p3174
I0
sS'>67973.0'
p3175
(dp3176
g53
(dp3177
S'<0.0'
p3178
(dp3179
g87
(dp3180
S'<19.0'
p3181
I0
sS'>19.0'
p3182
(dp3183
g48
(dp3184
S'<326.0'
p3185
I0
sS'>326.0'
p3186
I1
sssssS'>0.0'
p3187
I1
sssssS'<27098.0'
p3188
I1
sssssssS'<4.0'
p3189
(dp3190
g13
(dp3191
S'>3.0'
p3192
I0
sS'<3.0'
p3193
(dp3194
g39
(dp3195
S'<2.0'
p3196
I0
sS'>2.0'
p3197
(dp3198
g32
(dp3199
S'>6.0'
p3200
(dp3201
g1
(dp3202
S'<423525.5'
p3203
I0
sS'>423525.5'
p3204
(dp3205
g1
(dp3206
S'<460456.0'
p3207
(dp3208
g13
(dp3209
S'<2.0'
p3210
I0
sS'>2.0'
p3211
I1
sssS'>460456.0'
p3212
I0
sssssS'<6.0'
p3213
(dp3214
g53
(dp3215
S'>23675.5'
p3216
I1
sS'<23675.5'
p3217
(dp3218
g32
(dp3219
S'>5.5'
p3220
I1
sS'<5.5'
p3221
I0
sssssssssssssssssS'<0.5'
p3222
(dp3223
g17
(dp3224
S'>39.5'
p3225
(dp3226
g17
(dp3227
S'>76.0'
p3228
(dp3229
g32
(dp3230
S'<8.0'
p3231
(dp3232
g39
(dp3233
S'<3.5'
p3234
I0
sS'>3.5'
p3235
I1
sssS'>8.0'
p3236
I0
sssS'<76.0'
p3237
(dp3238
g48
(dp3239
S'<795.0'
p3240
(dp3241
g13
(dp3242
S'<0.0'
p3243
(dp3244
g28
(dp3245
S'<82824.0'
p3246
I1
sS'>82824.0'
p3247
I0
sssS'>0.0'
p3248
I0
sssS'>795.0'
p3249
(dp3250
g13
(dp3251
S'<0.0'
p3252
(dp3253
g28
(dp3254
S'>107182.0'
p3255
I0
sS'<107182.0'
p3256
I1
sssS'>0.0'
p3257
I0
sssssssS'<39.5'
p3258
(dp3259
g17
(dp3260
S'>27.5'
p3261
(dp3262
g1
(dp3263
S'<273223.5'
p3264
I0
sS'>273223.5'
p3265
I1
sssS'<27.5'
p3266
(dp3267
g17
(dp3268
S'<24.0'
p3269
I1
sS'>24.0'
p3270
(dp3271
g48
(dp3272
S'>743.5'
p3273
I1
sS'<743.5'
p3274
I0
sssssssssssg268
(dp3275
g1
(dp3276
S'>313022.5'
p3277
(dp3278
g53
(dp3279
S'<0.0'
p3280
(dp3281
g28
(dp3282
S'>132459.5'
p3283
(dp3284
g87
(dp3285
S'>6.0'
p3286
I1
sS'<6.0'
p3287
(dp3288
g53
(dp3289
S'<0.0'
p3290
I1
sS'>0.0'
p3291
I0
sssssS'<132459.5'
p3292
(dp3293
g1
(dp3294
S'>376669.5'
p3295
(dp3296
g48
(dp3297
S'>616.0'
p3298
(dp3299
g289
(dp3300
S'<784976.5'
p3301
I1
sS'>784976.5'
p3302
I0
sssS'<616.0'
p3303
I1
sssS'<376669.5'
p3304
(dp3305
g28
(dp3306
S'<112252.5'
p3307
(dp3308
g17
(dp3309
S'<21.0'
p3310
I1
sS'>21.0'
p3311
I0
sssS'>112252.5'
p3312
(dp3313
g87
(dp3314
S'<11.0'
p3315
I0
sS'>11.0'
p3316
(dp3317
g1
(dp3318
S'>356898.0'
p3319
I0
sS'<356898.0'
p3320
(dp3321
g17
(dp3322
S'<29.0'
p3323
I0
sS'>29.0'
p3324
(dp3325
g53
(dp3326
S'<0.0'
p3327
I1
sS'>0.0'
p3328
I0
sssssssssssssssS'>0.0'
p3329
(dp3330
g13
(dp3331
S'<0.0'
p3332
(dp3333
g28
(dp3334
S'>27886.5'
p3335
I0
sS'<27886.5'
p3336
(dp3337
g28
(dp3338
S'>25459.0'
p3339
I1
sS'<25459.0'
p3340
I0
sssssS'>0.0'
p3341
(dp3342
g87
(dp3343
S'>30.0'
p3344
I1
sS'<30.0'
p3345
(dp3346
g53
(dp3347
S'<0.0'
p3348
(dp3349
g32
(dp3350
S'>1.0'
p3351
(dp3352
g17
(dp3353
S'>32.0'
p3354
I0
sS'<32.0'
p3355
(dp3356
g53
(dp3357
S'<0.0'
p3358
I0
sS'>0.0'
p3359
I1
sssssS'<1.0'
p3360
I1
sssS'>0.0'
p3361
(dp3362
g87
(dp3363
S'>27.0'
p3364
I0
sS'<27.0'
p3365
(dp3366
g17
(dp3367
S'<72.0'
p3368
(dp3369
g87
(dp3370
S'<16.0'
p3371
(dp3372
g13
(dp3373
S'>4.0'
p3374
(dp3375
g1
(dp3376
S'>405357.5'
p3377
(dp3378
g17
(dp3379
S'>56.0'
p3380
I1
sS'<56.0'
p3381
I0
sssS'<405357.5'
p3382
(dp3383
g17
(dp3384
S'>56.0'
p3385
I0
sS'<56.0'
p3386
I1
sssssS'<4.0'
p3387
(dp3388
g32
(dp3389
S'>11.5'
p3390
(dp3391
g1
(dp3392
S'<491983.5'
p3393
(dp3394
g289
(dp3395
S'<406094.5'
p3396
I0
sS'>406094.5'
p3397
(dp3398
g32
(dp3399
S'>16.5'
p3400
I0
sS'<16.5'
p3401
(dp3402
g87
(dp3403
S'<8.0'
p3404
I1
sS'>8.0'
p3405
(dp3406
g53
(dp3407
S'>52486.0'
p3408
I0
sS'<52486.0'
p3409
I1
sssssssssS'>491983.5'
p3410
I1
sssS'<11.5'
p3411
I0
sssssS'>16.0'
p3412
(dp3413
g28
(dp3414
S'<116037.0'
p3415
(dp3416
g53
(dp3417
S'>59558.0'
p3418
(dp3419
g53
(dp3420
S'<62243.5'
p3421
I1
sS'>62243.5'
p3422
I0
sssS'<59558.0'
p3423
I0
sssS'>116037.0'
p3424
(dp3425
g39
(dp3426
S'<5.0'
p3427
(dp3428
g28
(dp3429
S'>127450.0'
p3430
(dp3431
g87
(dp3432
S'<25.0'
p3433
I0
sS'>25.0'
p3434
(dp3435
g28
(dp3436
S'>135434.0'
p3437
I1
sS'<135434.0'
p3438
I0
sssssS'<127450.0'
p3439
I1
sssS'>5.0'
p3440
I0
sssssssS'>72.0'
p3441
(dp3442
g17
(dp3443
S'>73.0'
p3444
(dp3445
g32
(dp3446
S'<19.0'
p3447
(dp3448
g13
(dp3449
S'<2.0'
p3450
(dp3451
g13
(dp3452
S'<2.0'
p3453
(dp3454
g53
(dp3455
S'<0.0'
p3456
I1
sS'>0.0'
p3457
I0
sssS'>2.0'
p3458
(dp3459
g28
(dp3460
S'>79655.5'
p3461
I0
sS'<79655.5'
p3462
I1
sssssS'>2.0'
p3463
I0
sssS'>19.0'
p3464
I1
sssS'<73.0'
p3465
(dp3466
g48
(dp3467
S'>508.5'
p3468
I1
sS'<508.5'
p3469
I0
sssssssssssssssssS'<313022.5'
p3470
(dp3471
g28
(dp3472
S'<112861.5'
p3473
(dp3474
g28
(dp3475
S'<83477.5'
p3476
(dp3477
g13
(dp3478
S'<0.0'
p3479
I0
sS'>0.0'
p3480
(dp3481
g53
(dp3482
S'>54029.0'
p3483
(dp3484
g28
(dp3485
S'<50104.5'
p3486
(dp3487
g53
(dp3488
S'<72261.5'
p3489
I0
sS'>72261.5'
p3490
I1
sssS'>50104.5'
p3491
I1
sssS'<54029.0'
p3492
(dp3493
g32
(dp3494
S'<5.0'
p3495
I0
sS'>5.0'
p3496
(dp3497
g28
(dp3498
S'<74031.5'
p3499
(dp3500
g17
(dp3501
S'<25.0'
p3502
I1
sS'>25.0'
p3503
(dp3504
g13
(dp3505
S'<3.5'
p3506
(dp3507
g13
(dp3508
S'<2.0'
p3509
I0
sS'>2.0'
p3510
(dp3511
g28
(dp3512
S'>67770.0'
p3513
I0
sS'<67770.0'
p3514
(dp3515
g87
(dp3516
S'>22.5'
p3517
(dp3518
g17
(dp3519
S'>66.5'
p3520
I1
sS'<66.5'
p3521
I0
sssS'<22.5'
p3522
I1
sssssssS'>3.5'
p3523
I0
sssssS'>74031.5'
p3524
(dp3525
g28
(dp3526
S'<79367.0'
p3527
I1
sS'>79367.0'
p3528
(dp3529
g28
(dp3530
S'<82544.0'
p3531
I0
sS'>82544.0'
p3532
I1
sssssssssssssS'>83477.5'
p3533
I0
sssS'>112861.5'
p3534
(dp3535
g53
(dp3536
S'>6072.0'
p3537
I0
sS'<6072.0'
p3538
(dp3539
g17
(dp3540
S'<21.0'
p3541
(dp3542
g28
(dp3543
S'>124688.5'
p3544
I0
sS'<124688.5'
p3545
I1
sssS'>21.0'
p3546
I1
sssssssssssg1469
(dp3547
g9
(dp3548
g11
(dp3549
g28
(dp3550
S'>99986.0'
p3551
(dp3552
g13
(dp3553
S'<0.0'
p3554
(dp3555
g17
(dp3556
S'<60.0'
p3557
(dp3558
g53
(dp3559
S'<0.0'
p3560
I0
sS'>0.0'
p3561
I1
sssS'>60.0'
p3562
I0
sssS'>0.0'
p3563
(dp3564
g53
(dp3565
S'<0.0'
p3566
I0
sS'>0.0'
p3567
(dp3568
g17
(dp3569
S'>45.0'
p3570
(dp3571
g32
(dp3572
S'<6.5'
p3573
I0
sS'>6.5'
p3574
(dp3575
g1
(dp3576
S'>358719.5'
p3577
(dp3578
g13
(dp3579
S'<2.0'
p3580
(dp3581
g53
(dp3582
S'<0.0'
p3583
I0
sS'>0.0'
p3584
I1
sssS'>2.0'
p3585
(dp3586
g17
(dp3587
S'>63.0'
p3588
I0
sS'<63.0'
p3589
(dp3590
g13
(dp3591
S'>3.0'
p3592
(dp3593
g289
(dp3594
S'<321641.5'
p3595
I1
sS'>321641.5'
p3596
(dp3597
g53
(dp3598
S'<0.0'
p3599
I0
sS'>0.0'
p3600
(dp3601
g53
(dp3602
S'<0.0'
p3603
I1
sS'>0.0'
p3604
I0
sssssssS'<3.0'
p3605
(dp3606
g53
(dp3607
S'<0.0'
p3608
(dp3609
g28
(dp3610
S'>124354.5'
p3611
I1
sS'<124354.5'
p3612
I0
sssS'>0.0'
p3613
I0
sssssssssS'<358719.5'
p3614
(dp3615
g289
(dp3616
S'>1262830.5'
p3617
I1
sS'<1262830.5'
p3618
I0
sssssssS'<45.0'
p3619
(dp3620
g32
(dp3621
S'>6.0'
p3622
I0
sS'<6.0'
p3623
(dp3624
g87
(dp3625
S'<21.0'
p3626
I0
sS'>21.0'
p3627
(dp3628
g28
(dp3629
S'>138012.5'
p3630
I0
sS'<138012.5'
p3631
(dp3632
g28
(dp3633
S'>118602.5'
p3634
I1
sS'<118602.5'
p3635
I0
sssssssssssssssS'<99986.0'
p3636
(dp3637
g28
(dp3638
S'<49817.0'
p3639
(dp3640
g13
(dp3641
S'<1.5'
p3642
(dp3643
g28
(dp3644
S'>25081.0'
p3645
(dp3646
g17
(dp3647
S'<36.0'
p3648
I1
sS'>36.0'
p3649
(dp3650
g17
(dp3651
S'<59.5'
p3652
(dp3653
g53
(dp3654
S'>6037.5'
p3655
I0
sS'<6037.5'
p3656
I1
sssS'>59.5'
p3657
I1
sssssS'<25081.0'
p3658
I0
sssS'>1.5'
p3659
(dp3660
g17
(dp3661
S'>53.0'
p3662
(dp3663
g87
(dp3664
S'<13.0'
p3665
(dp3666
g13
(dp3667
S'>4.0'
p3668
I1
sS'<4.0'
p3669
(dp3670
g39
(dp3671
S'>3.0'
p3672
I0
sS'<3.0'
p3673
I1
sssssS'>13.0'
p3674
I0
sssS'<53.0'
p3675
I0
sssssS'>49817.0'
p3676
(dp3677
g13
(dp3678
S'<1.5'
p3679
(dp3680
g28
(dp3681
S'>75286.0'
p3682
(dp3683
g1
(dp3684
S'>420399.5'
p3685
(dp3686
g17
(dp3687
S'<60.0'
p3688
(dp3689
g48
(dp3690
S'>433.5'
p3691
I1
sS'<433.5'
p3692
(dp3693
g28
(dp3694
S'>90250.5'
p3695
I1
sS'<90250.5'
p3696
I0
sssssS'>60.0'
p3697
I0
sssS'<420399.5'
p3698
(dp3699
g48
(dp3700
S'<768.5'
p3701
I0
sS'>768.5'
p3702
I1
sssssS'<75286.0'
p3703
(dp3704
g39
(dp3705
S'<8.0'
p3706
(dp3707
g32
(dp3708
S'<20.0'
p3709
(dp3710
g13
(dp3711
S'<0.0'
p3712
(dp3713
g28
(dp3714
S'<52013.0'
p3715
I1
sS'>52013.0'
p3716
I0
sssS'>0.0'
p3717
(dp3718
g87
(dp3719
S'<3.5'
p3720
(dp3721
g28
(dp3722
S'>71115.0'
p3723
I0
sS'<71115.0'
p3724
I1
sssS'>3.5'
p3725
I1
sssssS'>20.0'
p3726
I0
sssS'>8.0'
p3727
I0
sssssS'>1.5'
p3728
(dp3729
g87
(dp3730
S'>27.0'
p3731
(dp3732
g13
(dp3733
S'<3.5'
p3734
I1
sS'>3.5'
p3735
(dp3736
g17
(dp3737
S'>66.0'
p3738
I1
sS'<66.0'
p3739
I0
sssssS'<27.0'
p3740
(dp3741
g87
(dp3742
S'<14.0'
p3743
(dp3744
g87
(dp3745
S'>3.0'
p3746
(dp3747
g87
(dp3748
S'<3.5'
p3749
I0
sS'>3.5'
p3750
(dp3751
g53
(dp3752
S'<0.0'
p3753
(dp3754
g28
(dp3755
S'>99187.0'
p3756
(dp3757
g28
(dp3758
S'<99544.0'
p3759
I0
sS'>99544.0'
p3760
I1
sssS'<99187.0'
p3761
I1
sssS'>0.0'
p3762
(dp3763
g1
(dp3764
S'<489935.5'
p3765
(dp3766
g1
(dp3767
S'>415988.0'
p3768
I1
sS'<415988.0'
p3769
(dp3770
g1
(dp3771
S'<404950.5'
p3772
(dp3773
g13
(dp3774
S'>4.0'
p3775
(dp3776
g28
(dp3777
S'<68681.0'
p3778
I0
sS'>68681.0'
p3779
I1
sssS'<4.0'
p3780
I1
sssS'>404950.5'
p3781
I0
sssssS'>489935.5'
p3782
I0
sssssssS'<3.0'
p3783
I1
sssS'>14.0'
p3784
(dp3785
g53
(dp3786
S'<66942.0'
p3787
I1
sS'>66942.0'
p3788
I0
sssssssssssssg268
(dp3789
g28
(dp3790
S'<111299.5'
p3791
(dp3792
g1
(dp3793
S'<400491.5'
p3794
(dp3795
g13
(dp3796
S'<0.0'
p3797
(dp3798
g28
(dp3799
S'<31295.5'
p3800
I0
sS'>31295.5'
p3801
I1
sssS'>0.0'
p3802
(dp3803
g28
(dp3804
S'<44128.0'
p3805
(dp3806
g17
(dp3807
S'<72.0'
p3808
(dp3809
g1
(dp3810
S'>389233.5'
p3811
(dp3812
g28
(dp3813
S'<27154.5'
p3814
I1
sS'>27154.5'
p3815
I0
sssS'<389233.5'
p3816
I0
sssS'>72.0'
p3817
(dp3818
g17
(dp3819
S'>74.0'
p3820
I0
sS'<74.0'
p3821
I1
sssssS'>44128.0'
p3822
(dp3823
g53
(dp3824
S'>63399.0'
p3825
(dp3826
g32
(dp3827
S'>2.5'
p3828
(dp3829
g13
(dp3830
S'>4.0'
p3831
I0
sS'<4.0'
p3832
I1
sssS'<2.5'
p3833
I0
sssS'<63399.0'
p3834
(dp3835
g39
(dp3836
S'<0.0'
p3837
(dp3838
g17
(dp3839
S'<30.5'
p3840
I0
sS'>30.5'
p3841
I1
sssS'>0.0'
p3842
(dp3843
g289
(dp3844
S'<148369.5'
p3845
I0
sS'>148369.5'
p3846
(dp3847
g13
(dp3848
S'<0.0'
p3849
I0
sS'>0.0'
p3850
(dp3851
g13
(dp3852
S'<2.0'
p3853
(dp3854
g87
(dp3855
S'<14.0'
p3856
(dp3857
g28
(dp3858
S'>67250.5'
p3859
(dp3860
g39
(dp3861
S'>7.5'
p3862
I0
sS'<7.5'
p3863
I1
sssS'<67250.5'
p3864
(dp3865
g53
(dp3866
S'<22176.0'
p3867
I1
sS'>22176.0'
p3868
I0
sssssS'>14.0'
p3869
(dp3870
g53
(dp3871
S'<44923.5'
p3872
(dp3873
g13
(dp3874
S'<2.0'
p3875
I0
sS'>2.0'
p3876
I1
sssS'>44923.5'
p3877
I1
sssssS'>2.0'
p3878
(dp3879
g32
(dp3880
S'<13.0'
p3881
(dp3882
g87
(dp3883
S'<29.5'
p3884
(dp3885
g1
(dp3886
S'<337674.0'
p3887
I0
sS'>337674.0'
p3888
(dp3889
g1
(dp3890
S'<381115.0'
p3891
(dp3892
g53
(dp3893
S'<0.0'
p3894
I0
sS'>0.0'
p3895
(dp3896
g87
(dp3897
S'<16.0'
p3898
(dp3899
g28
(dp3900
S'<58004.0'
p3901
I1
sS'>58004.0'
p3902
I0
sssS'>16.0'
p3903
I1
sssssS'>381115.0'
p3904
I0
sssssS'>29.5'
p3905
I1
sssS'>13.0'
p3906
I0
sssssssssssssssssS'>400491.5'
p3907
(dp3908
g17
(dp3909
S'>75.5'
p3910
(dp3911
g17
(dp3912
S'>77.5'
p3913
I0
sS'<77.5'
p3914
(dp3915
g28
(dp3916
S'<52183.5'
p3917
I0
sS'>52183.5'
p3918
I1
sssssS'<75.5'
p3919
(dp3920
g289
(dp3921
S'<75050.5'
p3922
(dp3923
g289
(dp3924
S'<74156.0'
p3925
I0
sS'>74156.0'
p3926
I1
sssS'>75050.5'
p3927
I0
sssssssS'>111299.5'
p3928
(dp3929
g1
(dp3930
S'>400279.5'
p3931
(dp3932
g53
(dp3933
S'<0.0'
p3934
I0
sS'>0.0'
p3935
(dp3936
g53
(dp3937
S'<0.0'
p3938
(dp3939
g28
(dp3940
S'>130916.0'
p3941
I1
sS'<130916.0'
p3942
I0
sssS'>0.0'
p3943
(dp3944
g87
(dp3945
S'<3.5'
p3946
(dp3947
g28
(dp3948
S'<143913.0'
p3949
I0
sS'>143913.0'
p3950
I1
sssS'>3.5'
p3951
(dp3952
g28
(dp3953
S'<123977.0'
p3954
(dp3955
g87
(dp3956
S'<21.5'
p3957
I0
sS'>21.5'
p3958
(dp3959
g53
(dp3960
S'<0.0'
p3961
I1
sS'>0.0'
p3962
(dp3963
g53
(dp3964
S'<0.0'
p3965
I0
sS'>0.0'
p3966
I1
sssssssS'>123977.0'
p3967
I0
sssssssssS'<400279.5'
p3968
(dp3969
g53
(dp3970
S'<0.0'
p3971
(dp3972
g28
(dp3973
S'>147280.5'
p3974
(dp3975
g28
(dp3976
S'<147953.0'
p3977
I0
sS'>147953.0'
p3978
I1
sssS'<147280.5'
p3979
(dp3980
g28
(dp3981
S'>127699.5'
p3982
I1
sS'<127699.5'
p3983
(dp3984
g13
(dp3985
S'<3.5'
p3986
(dp3987
g28
(dp3988
S'>113914.0'
p3989
I1
sS'<113914.0'
p3990
(dp3991
g87
(dp3992
S'<18.5'
p3993
I0
sS'>18.5'
p3994
I1
sssssS'>3.5'
p3995
I0
sssssssS'>0.0'
p3996
(dp3997
g13
(dp3998
S'>1.0'
p3999
(dp4000
g48
(dp4001
S'<408.5'
p4002
I0
sS'>408.5'
p4003
(dp4004
g28
(dp4005
S'>118749.0'
p4006
(dp4007
g39
(dp4008
S'>3.0'
p4009
(dp4010
g53
(dp4011
S'<0.0'
p4012
I1
sS'>0.0'
p4013
(dp4014
g17
(dp4015
S'>76.0'
p4016
I1
sS'<76.0'
p4017
(dp4018
g1
(dp4019
S'<337880.0'
p4020
(dp4021
g17
(dp4022
S'<46.0'
p4023
I1
sS'>46.0'
p4024
I0
sssS'>337880.0'
p4025
I0
sssssssS'<3.0'
p4026
I0
sssS'<118749.0'
p4027
I1
sssssS'<1.0'
p4028
(dp4029
g28
(dp4030
S'<130652.5'
p4031
(dp4032
g39
(dp4033
S'<5.0'
p4034
(dp4035
g53
(dp4036
S'<0.0'
p4037
I0
sS'>0.0'
p4038
(dp4039
g28
(dp4040
S'>122487.0'
p4041
I0
sS'<122487.0'
p4042
I1
sssssS'>5.0'
p4043
I0
sssS'>130652.5'
p4044
(dp4045
g1
(dp4046
S'<331278.0'
p4047
I0
sS'>331278.0'
p4048
I1
ssssssssssssssssss.